Archive member included to satisfy reference by file (symbol)

../StdPeriphDriver\libISP583.a(ISP583.o)
                              ./src/Main.o (FLASH_EEPROM_CMD)
c:/mounriver/mounriver_studio/toolchain/risc-v embedded gcc/bin/../lib/gcc/riscv-none-embed/8.2.0/rv32imac/ilp32\libgcc.a(_udivdi3.o)
                              ./src/Main.o (__udivdi3)
c:/mounriver/mounriver_studio/toolchain/risc-v embedded gcc/bin/../lib/gcc/riscv-none-embed/8.2.0/rv32imac/ilp32\libgcc.a(adddf3.o)
                              ./src/onewire.o (__adddf3)
c:/mounriver/mounriver_studio/toolchain/risc-v embedded gcc/bin/../lib/gcc/riscv-none-embed/8.2.0/rv32imac/ilp32\libgcc.a(divdf3.o)
                              ./src/onewire.o (__divdf3)
c:/mounriver/mounriver_studio/toolchain/risc-v embedded gcc/bin/../lib/gcc/riscv-none-embed/8.2.0/rv32imac/ilp32\libgcc.a(muldf3.o)
                              ./src/adc.o (__muldf3)
c:/mounriver/mounriver_studio/toolchain/risc-v embedded gcc/bin/../lib/gcc/riscv-none-embed/8.2.0/rv32imac/ilp32\libgcc.a(subdf3.o)
                              ./src/onewire.o (__subdf3)
c:/mounriver/mounriver_studio/toolchain/risc-v embedded gcc/bin/../lib/gcc/riscv-none-embed/8.2.0/rv32imac/ilp32\libgcc.a(floatsidf.o)
                              ./src/onewire.o (__floatsidf)
c:/mounriver/mounriver_studio/toolchain/risc-v embedded gcc/bin/../lib/gcc/riscv-none-embed/8.2.0/rv32imac/ilp32\libgcc.a(addsf3.o)
                              ./src/adc.o (__addsf3)
c:/mounriver/mounriver_studio/toolchain/risc-v embedded gcc/bin/../lib/gcc/riscv-none-embed/8.2.0/rv32imac/ilp32\libgcc.a(divsf3.o)
                              ./src/adc.o (__divsf3)
c:/mounriver/mounriver_studio/toolchain/risc-v embedded gcc/bin/../lib/gcc/riscv-none-embed/8.2.0/rv32imac/ilp32\libgcc.a(gesf2.o)
                              ./src/onewire.o (__gesf2)
c:/mounriver/mounriver_studio/toolchain/risc-v embedded gcc/bin/../lib/gcc/riscv-none-embed/8.2.0/rv32imac/ilp32\libgcc.a(lesf2.o)
                              ./src/onewire.o (__lesf2)
c:/mounriver/mounriver_studio/toolchain/risc-v embedded gcc/bin/../lib/gcc/riscv-none-embed/8.2.0/rv32imac/ilp32\libgcc.a(mulsf3.o)
                              ./src/adc.o (__mulsf3)
c:/mounriver/mounriver_studio/toolchain/risc-v embedded gcc/bin/../lib/gcc/riscv-none-embed/8.2.0/rv32imac/ilp32\libgcc.a(subsf3.o)
                              ./src/adc.o (__subsf3)
c:/mounriver/mounriver_studio/toolchain/risc-v embedded gcc/bin/../lib/gcc/riscv-none-embed/8.2.0/rv32imac/ilp32\libgcc.a(fixunssfsi.o)
                              ./src/adc.o (__fixunssfsi)
c:/mounriver/mounriver_studio/toolchain/risc-v embedded gcc/bin/../lib/gcc/riscv-none-embed/8.2.0/rv32imac/ilp32\libgcc.a(floatsisf.o)
                              ./src/adc.o (__floatsisf)
c:/mounriver/mounriver_studio/toolchain/risc-v embedded gcc/bin/../lib/gcc/riscv-none-embed/8.2.0/rv32imac/ilp32\libgcc.a(extendsfdf2.o)
                              ./src/adc.o (__extendsfdf2)
c:/mounriver/mounriver_studio/toolchain/risc-v embedded gcc/bin/../lib/gcc/riscv-none-embed/8.2.0/rv32imac/ilp32\libgcc.a(truncdfsf2.o)
                              ./src/adc.o (__truncdfsf2)
c:/mounriver/mounriver_studio/toolchain/risc-v embedded gcc/bin/../lib/gcc/riscv-none-embed/8.2.0/rv32imac/ilp32\libgcc.a(_clz.o)
                              c:/mounriver/mounriver_studio/toolchain/risc-v embedded gcc/bin/../lib/gcc/riscv-none-embed/8.2.0/rv32imac/ilp32\libgcc.a(_udivdi3.o) (__clz_tab)
c:/mounriver/mounriver_studio/toolchain/risc-v embedded gcc/bin/../lib/gcc/riscv-none-embed/8.2.0/rv32imac/ilp32\libgcc.a(_clzsi2.o)
                              c:/mounriver/mounriver_studio/toolchain/risc-v embedded gcc/bin/../lib/gcc/riscv-none-embed/8.2.0/rv32imac/ilp32\libgcc.a(adddf3.o) (__clzsi2)
c:/mounriver/mounriver_studio/toolchain/risc-v embedded gcc/bin/../lib/gcc/riscv-none-embed/8.2.0/../../../../riscv-none-embed/lib/rv32imac/ilp32\libg_nano.a(lib_a-locale.o)
                              ./src/utils/log.o (__locale_ctype_ptr)
c:/mounriver/mounriver_studio/toolchain/risc-v embedded gcc/bin/../lib/gcc/riscv-none-embed/8.2.0/../../../../riscv-none-embed/lib/rv32imac/ilp32\libg_nano.a(lib_a-malloc.o)
                              ./src/liblightmodbus-impl.o (free)
c:/mounriver/mounriver_studio/toolchain/risc-v embedded gcc/bin/../lib/gcc/riscv-none-embed/8.2.0/../../../../riscv-none-embed/lib/rv32imac/ilp32\libg_nano.a(lib_a-mbtowc_r.o)
                              c:/mounriver/mounriver_studio/toolchain/risc-v embedded gcc/bin/../lib/gcc/riscv-none-embed/8.2.0/../../../../riscv-none-embed/lib/rv32imac/ilp32\libg_nano.a(lib_a-locale.o) (__ascii_mbtowc)
c:/mounriver/mounriver_studio/toolchain/risc-v embedded gcc/bin/../lib/gcc/riscv-none-embed/8.2.0/../../../../riscv-none-embed/lib/rv32imac/ilp32\libg_nano.a(lib_a-memcmp.o)
                              ./src/configtool.o (memcmp)
c:/mounriver/mounriver_studio/toolchain/risc-v embedded gcc/bin/../lib/gcc/riscv-none-embed/8.2.0/../../../../riscv-none-embed/lib/rv32imac/ilp32\libg_nano.a(lib_a-memcpy.o)
                              ./src/utils/md5.o (memcpy)
c:/mounriver/mounriver_studio/toolchain/risc-v embedded gcc/bin/../lib/gcc/riscv-none-embed/8.2.0/../../../../riscv-none-embed/lib/rv32imac/ilp32\libg_nano.a(lib_a-memset.o)
                              ./src/utils/md5.o (memset)
c:/mounriver/mounriver_studio/toolchain/risc-v embedded gcc/bin/../lib/gcc/riscv-none-embed/8.2.0/../../../../riscv-none-embed/lib/rv32imac/ilp32\libg_nano.a(lib_a-nano-freer.o)
                              c:/mounriver/mounriver_studio/toolchain/risc-v embedded gcc/bin/../lib/gcc/riscv-none-embed/8.2.0/../../../../riscv-none-embed/lib/rv32imac/ilp32\libg_nano.a(lib_a-malloc.o) (_free_r)
c:/mounriver/mounriver_studio/toolchain/risc-v embedded gcc/bin/../lib/gcc/riscv-none-embed/8.2.0/../../../../riscv-none-embed/lib/rv32imac/ilp32\libg_nano.a(lib_a-nano-mallocr.o)
                              c:/mounriver/mounriver_studio/toolchain/risc-v embedded gcc/bin/../lib/gcc/riscv-none-embed/8.2.0/../../../../riscv-none-embed/lib/rv32imac/ilp32\libg_nano.a(lib_a-malloc.o) (_malloc_r)
c:/mounriver/mounriver_studio/toolchain/risc-v embedded gcc/bin/../lib/gcc/riscv-none-embed/8.2.0/../../../../riscv-none-embed/lib/rv32imac/ilp32\libg_nano.a(lib_a-nano-vfprintf_float.o)
                              (_printf_float)
c:/mounriver/mounriver_studio/toolchain/risc-v embedded gcc/bin/../lib/gcc/riscv-none-embed/8.2.0/../../../../riscv-none-embed/lib/rv32imac/ilp32\libg_nano.a(lib_a-nano-vfprintf_i.o)
                              c:/mounriver/mounriver_studio/toolchain/risc-v embedded gcc/bin/../lib/gcc/riscv-none-embed/8.2.0/../../../../riscv-none-embed/lib/rv32imac/ilp32\libg_nano.a(lib_a-nano-vfprintf_float.o) (_printf_common)
c:/mounriver/mounriver_studio/toolchain/risc-v embedded gcc/bin/../lib/gcc/riscv-none-embed/8.2.0/../../../../riscv-none-embed/lib/rv32imac/ilp32\libg_nano.a(lib_a-printf.o)
                              ./src/utils/log.o (printf)
c:/mounriver/mounriver_studio/toolchain/risc-v embedded gcc/bin/../lib/gcc/riscv-none-embed/8.2.0/../../../../riscv-none-embed/lib/rv32imac/ilp32\libg_nano.a(lib_a-putchar.o)
                              ./StdPeriphDriver/CH58x_usb2hostClass.o (putchar)
c:/mounriver/mounriver_studio/toolchain/risc-v embedded gcc/bin/../lib/gcc/riscv-none-embed/8.2.0/../../../../riscv-none-embed/lib/rv32imac/ilp32\libg_nano.a(lib_a-puts.o)
                              ./src/Main.o (puts)
c:/mounriver/mounriver_studio/toolchain/risc-v embedded gcc/bin/../lib/gcc/riscv-none-embed/8.2.0/../../../../riscv-none-embed/lib/rv32imac/ilp32\libg_nano.a(lib_a-realloc.o)
                              ./src/liblightmodbus-impl.o (realloc)
c:/mounriver/mounriver_studio/toolchain/risc-v embedded gcc/bin/../lib/gcc/riscv-none-embed/8.2.0/../../../../riscv-none-embed/lib/rv32imac/ilp32\libg_nano.a(lib_a-sbrkr.o)
                              c:/mounriver/mounriver_studio/toolchain/risc-v embedded gcc/bin/../lib/gcc/riscv-none-embed/8.2.0/../../../../riscv-none-embed/lib/rv32imac/ilp32\libg_nano.a(lib_a-nano-mallocr.o) (_sbrk_r)
c:/mounriver/mounriver_studio/toolchain/risc-v embedded gcc/bin/../lib/gcc/riscv-none-embed/8.2.0/../../../../riscv-none-embed/lib/rv32imac/ilp32\libg_nano.a(lib_a-snprintf.o)
                              ./src/display.o (snprintf)
c:/mounriver/mounriver_studio/toolchain/risc-v embedded gcc/bin/../lib/gcc/riscv-none-embed/8.2.0/../../../../riscv-none-embed/lib/rv32imac/ilp32\libg_nano.a(lib_a-sprintf.o)
                              ./src/utils/log.o (sprintf)
c:/mounriver/mounriver_studio/toolchain/risc-v embedded gcc/bin/../lib/gcc/riscv-none-embed/8.2.0/../../../../riscv-none-embed/lib/rv32imac/ilp32\libg_nano.a(lib_a-strcmp.o)
                              c:/mounriver/mounriver_studio/toolchain/risc-v embedded gcc/bin/../lib/gcc/riscv-none-embed/8.2.0/../../../../riscv-none-embed/lib/rv32imac/ilp32\libg_nano.a(lib_a-locale.o) (strcmp)
c:/mounriver/mounriver_studio/toolchain/risc-v embedded gcc/bin/../lib/gcc/riscv-none-embed/8.2.0/../../../../riscv-none-embed/lib/rv32imac/ilp32\libg_nano.a(lib_a-strcpy.o)
                              ./src/utils/log.o (strcpy)
c:/mounriver/mounriver_studio/toolchain/risc-v embedded gcc/bin/../lib/gcc/riscv-none-embed/8.2.0/../../../../riscv-none-embed/lib/rv32imac/ilp32\libg_nano.a(lib_a-strlen.o)
                              ./src/display.o (strlen)
c:/mounriver/mounriver_studio/toolchain/risc-v embedded gcc/bin/../lib/gcc/riscv-none-embed/8.2.0/../../../../riscv-none-embed/lib/rv32imac/ilp32\libg_nano.a(lib_a-vsnprintf.o)
                              ./src/display.o (vsnprintf)
c:/mounriver/mounriver_studio/toolchain/risc-v embedded gcc/bin/../lib/gcc/riscv-none-embed/8.2.0/../../../../riscv-none-embed/lib/rv32imac/ilp32\libg_nano.a(lib_a-wbuf.o)
                              c:/mounriver/mounriver_studio/toolchain/risc-v embedded gcc/bin/../lib/gcc/riscv-none-embed/8.2.0/../../../../riscv-none-embed/lib/rv32imac/ilp32\libg_nano.a(lib_a-puts.o) (__swbuf_r)
c:/mounriver/mounriver_studio/toolchain/risc-v embedded gcc/bin/../lib/gcc/riscv-none-embed/8.2.0/../../../../riscv-none-embed/lib/rv32imac/ilp32\libg_nano.a(lib_a-wctomb_r.o)
                              c:/mounriver/mounriver_studio/toolchain/risc-v embedded gcc/bin/../lib/gcc/riscv-none-embed/8.2.0/../../../../riscv-none-embed/lib/rv32imac/ilp32\libg_nano.a(lib_a-locale.o) (__ascii_wctomb)
c:/mounriver/mounriver_studio/toolchain/risc-v embedded gcc/bin/../lib/gcc/riscv-none-embed/8.2.0/../../../../riscv-none-embed/lib/rv32imac/ilp32\libg_nano.a(lib_a-wsetup.o)
                              c:/mounriver/mounriver_studio/toolchain/risc-v embedded gcc/bin/../lib/gcc/riscv-none-embed/8.2.0/../../../../riscv-none-embed/lib/rv32imac/ilp32\libg_nano.a(lib_a-puts.o) (__swsetup_r)
c:/mounriver/mounriver_studio/toolchain/risc-v embedded gcc/bin/../lib/gcc/riscv-none-embed/8.2.0/../../../../riscv-none-embed/lib/rv32imac/ilp32\libg_nano.a(lib_a-ctype_.o)
                              c:/mounriver/mounriver_studio/toolchain/risc-v embedded gcc/bin/../lib/gcc/riscv-none-embed/8.2.0/../../../../riscv-none-embed/lib/rv32imac/ilp32\libg_nano.a(lib_a-locale.o) (_ctype_)
c:/mounriver/mounriver_studio/toolchain/risc-v embedded gcc/bin/../lib/gcc/riscv-none-embed/8.2.0/../../../../riscv-none-embed/lib/rv32imac/ilp32\libg_nano.a(lib_a-dtoa.o)
                              c:/mounriver/mounriver_studio/toolchain/risc-v embedded gcc/bin/../lib/gcc/riscv-none-embed/8.2.0/../../../../riscv-none-embed/lib/rv32imac/ilp32\libg_nano.a(lib_a-nano-vfprintf_float.o) (_dtoa_r)
c:/mounriver/mounriver_studio/toolchain/risc-v embedded gcc/bin/../lib/gcc/riscv-none-embed/8.2.0/../../../../riscv-none-embed/lib/rv32imac/ilp32\libg_nano.a(lib_a-fflush.o)
                              c:/mounriver/mounriver_studio/toolchain/risc-v embedded gcc/bin/../lib/gcc/riscv-none-embed/8.2.0/../../../../riscv-none-embed/lib/rv32imac/ilp32\libg_nano.a(lib_a-wbuf.o) (_fflush_r)
c:/mounriver/mounriver_studio/toolchain/risc-v embedded gcc/bin/../lib/gcc/riscv-none-embed/8.2.0/../../../../riscv-none-embed/lib/rv32imac/ilp32\libg_nano.a(lib_a-findfp.o)
                              c:/mounriver/mounriver_studio/toolchain/risc-v embedded gcc/bin/../lib/gcc/riscv-none-embed/8.2.0/../../../../riscv-none-embed/lib/rv32imac/ilp32\libg_nano.a(lib_a-printf.o) (__sinit)
c:/mounriver/mounriver_studio/toolchain/risc-v embedded gcc/bin/../lib/gcc/riscv-none-embed/8.2.0/../../../../riscv-none-embed/lib/rv32imac/ilp32\libg_nano.a(lib_a-fwalk.o)
                              c:/mounriver/mounriver_studio/toolchain/risc-v embedded gcc/bin/../lib/gcc/riscv-none-embed/8.2.0/../../../../riscv-none-embed/lib/rv32imac/ilp32\libg_nano.a(lib_a-findfp.o) (_fwalk)
c:/mounriver/mounriver_studio/toolchain/risc-v embedded gcc/bin/../lib/gcc/riscv-none-embed/8.2.0/../../../../riscv-none-embed/lib/rv32imac/ilp32\libg_nano.a(lib_a-impure.o)
                              c:/mounriver/mounriver_studio/toolchain/risc-v embedded gcc/bin/../lib/gcc/riscv-none-embed/8.2.0/../../../../riscv-none-embed/lib/rv32imac/ilp32\libg_nano.a(lib_a-fflush.o) (_global_impure_ptr)
c:/mounriver/mounriver_studio/toolchain/risc-v embedded gcc/bin/../lib/gcc/riscv-none-embed/8.2.0/../../../../riscv-none-embed/lib/rv32imac/ilp32\libg_nano.a(lib_a-localeconv.o)
                              c:/mounriver/mounriver_studio/toolchain/risc-v embedded gcc/bin/../lib/gcc/riscv-none-embed/8.2.0/../../../../riscv-none-embed/lib/rv32imac/ilp32\libg_nano.a(lib_a-nano-vfprintf_float.o) (_localeconv_r)
c:/mounriver/mounriver_studio/toolchain/risc-v embedded gcc/bin/../lib/gcc/riscv-none-embed/8.2.0/../../../../riscv-none-embed/lib/rv32imac/ilp32\libg_nano.a(lib_a-makebuf.o)
                              c:/mounriver/mounriver_studio/toolchain/risc-v embedded gcc/bin/../lib/gcc/riscv-none-embed/8.2.0/../../../../riscv-none-embed/lib/rv32imac/ilp32\libg_nano.a(lib_a-wsetup.o) (__smakebuf_r)
c:/mounriver/mounriver_studio/toolchain/risc-v embedded gcc/bin/../lib/gcc/riscv-none-embed/8.2.0/../../../../riscv-none-embed/lib/rv32imac/ilp32\libg_nano.a(lib_a-memchr.o)
                              c:/mounriver/mounriver_studio/toolchain/risc-v embedded gcc/bin/../lib/gcc/riscv-none-embed/8.2.0/../../../../riscv-none-embed/lib/rv32imac/ilp32\libg_nano.a(lib_a-nano-vfprintf_i.o) (memchr)
c:/mounriver/mounriver_studio/toolchain/risc-v embedded gcc/bin/../lib/gcc/riscv-none-embed/8.2.0/../../../../riscv-none-embed/lib/rv32imac/ilp32\libg_nano.a(lib_a-mlock.o)
                              c:/mounriver/mounriver_studio/toolchain/risc-v embedded gcc/bin/../lib/gcc/riscv-none-embed/8.2.0/../../../../riscv-none-embed/lib/rv32imac/ilp32\libg_nano.a(lib_a-nano-freer.o) (__malloc_lock)
c:/mounriver/mounriver_studio/toolchain/risc-v embedded gcc/bin/../lib/gcc/riscv-none-embed/8.2.0/../../../../riscv-none-embed/lib/rv32imac/ilp32\libg_nano.a(lib_a-mprec.o)
                              c:/mounriver/mounriver_studio/toolchain/risc-v embedded gcc/bin/../lib/gcc/riscv-none-embed/8.2.0/../../../../riscv-none-embed/lib/rv32imac/ilp32\libg_nano.a(lib_a-dtoa.o) (_Balloc)
c:/mounriver/mounriver_studio/toolchain/risc-v embedded gcc/bin/../lib/gcc/riscv-none-embed/8.2.0/../../../../riscv-none-embed/lib/rv32imac/ilp32\libg_nano.a(lib_a-nano-callocr.o)
                              c:/mounriver/mounriver_studio/toolchain/risc-v embedded gcc/bin/../lib/gcc/riscv-none-embed/8.2.0/../../../../riscv-none-embed/lib/rv32imac/ilp32\libg_nano.a(lib_a-mprec.o) (_calloc_r)
c:/mounriver/mounriver_studio/toolchain/risc-v embedded gcc/bin/../lib/gcc/riscv-none-embed/8.2.0/../../../../riscv-none-embed/lib/rv32imac/ilp32\libg_nano.a(lib_a-nano-reallocr.o)
                              c:/mounriver/mounriver_studio/toolchain/risc-v embedded gcc/bin/../lib/gcc/riscv-none-embed/8.2.0/../../../../riscv-none-embed/lib/rv32imac/ilp32\libg_nano.a(lib_a-realloc.o) (_realloc_r)
c:/mounriver/mounriver_studio/toolchain/risc-v embedded gcc/bin/../lib/gcc/riscv-none-embed/8.2.0/../../../../riscv-none-embed/lib/rv32imac/ilp32\libg_nano.a(lib_a-nano-svfprintf.o)
                              c:/mounriver/mounriver_studio/toolchain/risc-v embedded gcc/bin/../lib/gcc/riscv-none-embed/8.2.0/../../../../riscv-none-embed/lib/rv32imac/ilp32\libg_nano.a(lib_a-snprintf.o) (_svfprintf_r)
c:/mounriver/mounriver_studio/toolchain/risc-v embedded gcc/bin/../lib/gcc/riscv-none-embed/8.2.0/../../../../riscv-none-embed/lib/rv32imac/ilp32\libg_nano.a(lib_a-nano-vfprintf.o)
                              c:/mounriver/mounriver_studio/toolchain/risc-v embedded gcc/bin/../lib/gcc/riscv-none-embed/8.2.0/../../../../riscv-none-embed/lib/rv32imac/ilp32\libg_nano.a(lib_a-printf.o) (_vfprintf_r)
c:/mounriver/mounriver_studio/toolchain/risc-v embedded gcc/bin/../lib/gcc/riscv-none-embed/8.2.0/../../../../riscv-none-embed/lib/rv32imac/ilp32\libg_nano.a(lib_a-putc.o)
                              c:/mounriver/mounriver_studio/toolchain/risc-v embedded gcc/bin/../lib/gcc/riscv-none-embed/8.2.0/../../../../riscv-none-embed/lib/rv32imac/ilp32\libg_nano.a(lib_a-putchar.o) (_putc_r)
c:/mounriver/mounriver_studio/toolchain/risc-v embedded gcc/bin/../lib/gcc/riscv-none-embed/8.2.0/../../../../riscv-none-embed/lib/rv32imac/ilp32\libg_nano.a(lib_a-reent.o)
                              c:/mounriver/mounriver_studio/toolchain/risc-v embedded gcc/bin/../lib/gcc/riscv-none-embed/8.2.0/../../../../riscv-none-embed/lib/rv32imac/ilp32\libg_nano.a(lib_a-sbrkr.o) (errno)
c:/mounriver/mounriver_studio/toolchain/risc-v embedded gcc/bin/../lib/gcc/riscv-none-embed/8.2.0/../../../../riscv-none-embed/lib/rv32imac/ilp32\libg_nano.a(lib_a-stdio.o)
                              c:/mounriver/mounriver_studio/toolchain/risc-v embedded gcc/bin/../lib/gcc/riscv-none-embed/8.2.0/../../../../riscv-none-embed/lib/rv32imac/ilp32\libg_nano.a(lib_a-findfp.o) (__sread)
c:/mounriver/mounriver_studio/toolchain/risc-v embedded gcc/bin/../lib/gcc/riscv-none-embed/8.2.0/../../../../riscv-none-embed/lib/rv32imac/ilp32\libg_nano.a(lib_a-writer.o)
                              c:/mounriver/mounriver_studio/toolchain/risc-v embedded gcc/bin/../lib/gcc/riscv-none-embed/8.2.0/../../../../riscv-none-embed/lib/rv32imac/ilp32\libg_nano.a(lib_a-stdio.o) (_write_r)
c:/mounriver/mounriver_studio/toolchain/risc-v embedded gcc/bin/../lib/gcc/riscv-none-embed/8.2.0/../../../../riscv-none-embed/lib/rv32imac/ilp32\libg_nano.a(lib_a-closer.o)
                              c:/mounriver/mounriver_studio/toolchain/risc-v embedded gcc/bin/../lib/gcc/riscv-none-embed/8.2.0/../../../../riscv-none-embed/lib/rv32imac/ilp32\libg_nano.a(lib_a-stdio.o) (_close_r)
c:/mounriver/mounriver_studio/toolchain/risc-v embedded gcc/bin/../lib/gcc/riscv-none-embed/8.2.0/../../../../riscv-none-embed/lib/rv32imac/ilp32\libg_nano.a(lib_a-fstatr.o)
                              c:/mounriver/mounriver_studio/toolchain/risc-v embedded gcc/bin/../lib/gcc/riscv-none-embed/8.2.0/../../../../riscv-none-embed/lib/rv32imac/ilp32\libg_nano.a(lib_a-makebuf.o) (_fstat_r)
c:/mounriver/mounriver_studio/toolchain/risc-v embedded gcc/bin/../lib/gcc/riscv-none-embed/8.2.0/../../../../riscv-none-embed/lib/rv32imac/ilp32\libg_nano.a(lib_a-fvwrite.o)
                              c:/mounriver/mounriver_studio/toolchain/risc-v embedded gcc/bin/../lib/gcc/riscv-none-embed/8.2.0/../../../../riscv-none-embed/lib/rv32imac/ilp32\libg_nano.a(lib_a-nano-vfprintf.o) (__sfvwrite_r)
c:/mounriver/mounriver_studio/toolchain/risc-v embedded gcc/bin/../lib/gcc/riscv-none-embed/8.2.0/../../../../riscv-none-embed/lib/rv32imac/ilp32\libg_nano.a(lib_a-isattyr.o)
                              c:/mounriver/mounriver_studio/toolchain/risc-v embedded gcc/bin/../lib/gcc/riscv-none-embed/8.2.0/../../../../riscv-none-embed/lib/rv32imac/ilp32\libg_nano.a(lib_a-makebuf.o) (_isatty_r)
c:/mounriver/mounriver_studio/toolchain/risc-v embedded gcc/bin/../lib/gcc/riscv-none-embed/8.2.0/../../../../riscv-none-embed/lib/rv32imac/ilp32\libg_nano.a(lib_a-lseekr.o)
                              c:/mounriver/mounriver_studio/toolchain/risc-v embedded gcc/bin/../lib/gcc/riscv-none-embed/8.2.0/../../../../riscv-none-embed/lib/rv32imac/ilp32\libg_nano.a(lib_a-stdio.o) (_lseek_r)
c:/mounriver/mounriver_studio/toolchain/risc-v embedded gcc/bin/../lib/gcc/riscv-none-embed/8.2.0/../../../../riscv-none-embed/lib/rv32imac/ilp32\libg_nano.a(lib_a-memmove.o)
                              c:/mounriver/mounriver_studio/toolchain/risc-v embedded gcc/bin/../lib/gcc/riscv-none-embed/8.2.0/../../../../riscv-none-embed/lib/rv32imac/ilp32\libg_nano.a(lib_a-nano-svfprintf.o) (memmove)
c:/mounriver/mounriver_studio/toolchain/risc-v embedded gcc/bin/../lib/gcc/riscv-none-embed/8.2.0/../../../../riscv-none-embed/lib/rv32imac/ilp32\libg_nano.a(lib_a-nano-msizer.o)
                              c:/mounriver/mounriver_studio/toolchain/risc-v embedded gcc/bin/../lib/gcc/riscv-none-embed/8.2.0/../../../../riscv-none-embed/lib/rv32imac/ilp32\libg_nano.a(lib_a-nano-reallocr.o) (_malloc_usable_size_r)
c:/mounriver/mounriver_studio/toolchain/risc-v embedded gcc/bin/../lib/gcc/riscv-none-embed/8.2.0/../../../../riscv-none-embed/lib/rv32imac/ilp32\libg_nano.a(lib_a-readr.o)
                              c:/mounriver/mounriver_studio/toolchain/risc-v embedded gcc/bin/../lib/gcc/riscv-none-embed/8.2.0/../../../../riscv-none-embed/lib/rv32imac/ilp32\libg_nano.a(lib_a-stdio.o) (_read_r)
c:/mounriver/mounriver_studio/toolchain/risc-v embedded gcc/bin/../lib/gcc/riscv-none-embed/8.2.0/rv32imac/ilp32\libgcc.a(eqdf2.o)
                              c:/mounriver/mounriver_studio/toolchain/risc-v embedded gcc/bin/../lib/gcc/riscv-none-embed/8.2.0/../../../../riscv-none-embed/lib/rv32imac/ilp32\libg_nano.a(lib_a-nano-vfprintf_float.o) (__eqdf2)
c:/mounriver/mounriver_studio/toolchain/risc-v embedded gcc/bin/../lib/gcc/riscv-none-embed/8.2.0/rv32imac/ilp32\libgcc.a(gedf2.o)
                              c:/mounriver/mounriver_studio/toolchain/risc-v embedded gcc/bin/../lib/gcc/riscv-none-embed/8.2.0/../../../../riscv-none-embed/lib/rv32imac/ilp32\libg_nano.a(lib_a-dtoa.o) (__gedf2)
c:/mounriver/mounriver_studio/toolchain/risc-v embedded gcc/bin/../lib/gcc/riscv-none-embed/8.2.0/rv32imac/ilp32\libgcc.a(ledf2.o)
                              c:/mounriver/mounriver_studio/toolchain/risc-v embedded gcc/bin/../lib/gcc/riscv-none-embed/8.2.0/../../../../riscv-none-embed/lib/rv32imac/ilp32\libg_nano.a(lib_a-nano-vfprintf_float.o) (__ledf2)
c:/mounriver/mounriver_studio/toolchain/risc-v embedded gcc/bin/../lib/gcc/riscv-none-embed/8.2.0/rv32imac/ilp32\libgcc.a(unorddf2.o)
                              c:/mounriver/mounriver_studio/toolchain/risc-v embedded gcc/bin/../lib/gcc/riscv-none-embed/8.2.0/../../../../riscv-none-embed/lib/rv32imac/ilp32\libg_nano.a(lib_a-nano-vfprintf_float.o) (__unorddf2)
c:/mounriver/mounriver_studio/toolchain/risc-v embedded gcc/bin/../lib/gcc/riscv-none-embed/8.2.0/rv32imac/ilp32\libgcc.a(fixdfsi.o)
                              c:/mounriver/mounriver_studio/toolchain/risc-v embedded gcc/bin/../lib/gcc/riscv-none-embed/8.2.0/../../../../riscv-none-embed/lib/rv32imac/ilp32\libg_nano.a(lib_a-dtoa.o) (__fixdfsi)
c:/mounriver/mounriver_studio/toolchain/risc-v embedded gcc/bin/../lib/gcc/riscv-none-embed/8.2.0/rv32imac/ilp32\libgcc.a(floatunsidf.o)
                              c:/mounriver/mounriver_studio/toolchain/risc-v embedded gcc/bin/../lib/gcc/riscv-none-embed/8.2.0/../../../../riscv-none-embed/lib/rv32imac/ilp32\libg_nano.a(lib_a-dtoa.o) (__floatunsidf)
c:/mounriver/mounriver_studio/toolchain/risc-v embedded gcc/bin/../lib/gcc/riscv-none-embed/8.2.0/rv32imac/ilp32\libgcc.a(trunctfdf2.o)
                              c:/mounriver/mounriver_studio/toolchain/risc-v embedded gcc/bin/../lib/gcc/riscv-none-embed/8.2.0/../../../../riscv-none-embed/lib/rv32imac/ilp32\libg_nano.a(lib_a-nano-vfprintf_float.o) (__trunctfdf2)
c:/mounriver/mounriver_studio/toolchain/risc-v embedded gcc/bin/../lib/gcc/riscv-none-embed/8.2.0/../../../../riscv-none-embed/lib/rv32imac/ilp32\libnosys.a(close.o)
                              c:/mounriver/mounriver_studio/toolchain/risc-v embedded gcc/bin/../lib/gcc/riscv-none-embed/8.2.0/../../../../riscv-none-embed/lib/rv32imac/ilp32\libg_nano.a(lib_a-closer.o) (_close)
c:/mounriver/mounriver_studio/toolchain/risc-v embedded gcc/bin/../lib/gcc/riscv-none-embed/8.2.0/../../../../riscv-none-embed/lib/rv32imac/ilp32\libnosys.a(fstat.o)
                              c:/mounriver/mounriver_studio/toolchain/risc-v embedded gcc/bin/../lib/gcc/riscv-none-embed/8.2.0/../../../../riscv-none-embed/lib/rv32imac/ilp32\libg_nano.a(lib_a-fstatr.o) (_fstat)
c:/mounriver/mounriver_studio/toolchain/risc-v embedded gcc/bin/../lib/gcc/riscv-none-embed/8.2.0/../../../../riscv-none-embed/lib/rv32imac/ilp32\libnosys.a(isatty.o)
                              c:/mounriver/mounriver_studio/toolchain/risc-v embedded gcc/bin/../lib/gcc/riscv-none-embed/8.2.0/../../../../riscv-none-embed/lib/rv32imac/ilp32\libg_nano.a(lib_a-isattyr.o) (_isatty)
c:/mounriver/mounriver_studio/toolchain/risc-v embedded gcc/bin/../lib/gcc/riscv-none-embed/8.2.0/../../../../riscv-none-embed/lib/rv32imac/ilp32\libnosys.a(lseek.o)
                              c:/mounriver/mounriver_studio/toolchain/risc-v embedded gcc/bin/../lib/gcc/riscv-none-embed/8.2.0/../../../../riscv-none-embed/lib/rv32imac/ilp32\libg_nano.a(lib_a-lseekr.o) (_lseek)
c:/mounriver/mounriver_studio/toolchain/risc-v embedded gcc/bin/../lib/gcc/riscv-none-embed/8.2.0/../../../../riscv-none-embed/lib/rv32imac/ilp32\libnosys.a(read.o)
                              c:/mounriver/mounriver_studio/toolchain/risc-v embedded gcc/bin/../lib/gcc/riscv-none-embed/8.2.0/../../../../riscv-none-embed/lib/rv32imac/ilp32\libg_nano.a(lib_a-readr.o) (_read)
c:/mounriver/mounriver_studio/toolchain/risc-v embedded gcc/bin/../lib/gcc/riscv-none-embed/8.2.0/../../../../riscv-none-embed/lib/rv32imac/ilp32\libnosys.a(sbrk.o)
                              c:/mounriver/mounriver_studio/toolchain/risc-v embedded gcc/bin/../lib/gcc/riscv-none-embed/8.2.0/../../../../riscv-none-embed/lib/rv32imac/ilp32\libg_nano.a(lib_a-sbrkr.o) (_sbrk)

Allocating common symbols
Common symbol       size              file

device_t            0x324             ./src/onewire.o
pU2EP0_RAM_Addr     0x4               ./StdPeriphDriver/CH58x_usb2dev.o
U2Com_Buffer        0x80              ./StdPeriphDriver/CH58x_usb2hostClass.o
onewire_dev         0x20              ./src/onewire.o
Usb2DevEndp0Size    0x1               ./StdPeriphDriver/CH58x_usb2hostBase.o
errno               0x4               c:/mounriver/mounriver_studio/toolchain/risc-v embedded gcc/bin/../lib/gcc/riscv-none-embed/8.2.0/../../../../riscv-none-embed/lib/rv32imac/ilp32\libg_nano.a(lib_a-reent.o)
FoundNewU2Dev       0x1               ./StdPeriphDriver/CH58x_usb2hostBase.o
ROM_NO              0x8               ./src/onewire.o
pU2HOST_RX_RAM_Addr
                    0x4               ./StdPeriphDriver/CH58x_usb2hostBase.o
ThisUsb2Dev         0xe               ./StdPeriphDriver/CH58x_usb2hostBase.o
pU2HOST_TX_RAM_Addr
                    0x4               ./StdPeriphDriver/CH58x_usb2hostBase.o
pU2EP1_RAM_Addr     0x4               ./StdPeriphDriver/CH58x_usb2dev.o
array_t             0x18              ./src/adc.o
pU2EP3_RAM_Addr     0x4               ./StdPeriphDriver/CH58x_usb2dev.o
DevOnU2HubPort      0x30              ./StdPeriphDriver/CH58x_usb2hostBase.o
pU2EP2_RAM_Addr     0x4               ./StdPeriphDriver/CH58x_usb2dev.o

Discarded input sections

 .text          0x0000000000000000        0x0 ./src/utils/crc.o
 .data          0x0000000000000000        0x0 ./src/utils/crc.o
 .bss           0x0000000000000000        0x0 ./src/utils/crc.o
 .text          0x0000000000000000        0x0 ./src/utils/crc16.o
 .data          0x0000000000000000        0x0 ./src/utils/crc16.o
 .bss           0x0000000000000000        0x0 ./src/utils/crc16.o
 .text.crc16_init
                0x0000000000000000       0x12 ./src/utils/crc16.o
 .text.crc16_update
                0x0000000000000000       0x54 ./src/utils/crc16.o
 .text.crc16_value
                0x0000000000000000       0x12 ./src/utils/crc16.o
 .text.crc16    0x0000000000000000       0x2c ./src/utils/crc16.o
 .rodata.auchCRCHi
                0x0000000000000000      0x100 ./src/utils/crc16.o
 .rodata.auchCRCLo
                0x0000000000000000      0x100 ./src/utils/crc16.o
 .debug_info    0x0000000000000000      0xc05 ./src/utils/crc16.o
 .debug_abbrev  0x0000000000000000      0x302 ./src/utils/crc16.o
 .debug_loc     0x0000000000000000      0x165 ./src/utils/crc16.o
 .debug_aranges
                0x0000000000000000       0x38 ./src/utils/crc16.o
 .debug_ranges  0x0000000000000000       0x40 ./src/utils/crc16.o
 .debug_line    0x0000000000000000      0x3fe ./src/utils/crc16.o
 .debug_str     0x0000000000000000      0x60d ./src/utils/crc16.o
 .comment       0x0000000000000000       0x34 ./src/utils/crc16.o
 .debug_frame   0x0000000000000000       0x5c ./src/utils/crc16.o
 .text          0x0000000000000000        0x0 ./src/utils/log.o
 .data          0x0000000000000000        0x0 ./src/utils/log.o
 .bss           0x0000000000000000        0x0 ./src/utils/log.o
 .text.log_buffer_hexdump
                0x0000000000000000      0x1b6 ./src/utils/log.o
 .rodata.log_buffer_hexdump.str1.4
                0x0000000000000000       0x22 ./src/utils/log.o
 .text          0x0000000000000000        0x0 ./src/utils/md5.o
 .data          0x0000000000000000        0x0 ./src/utils/md5.o
 .bss           0x0000000000000000        0x0 ./src/utils/md5.o
 .text.MD5Transform
                0x0000000000000000      0x908 ./src/utils/md5.o
 .text.MD5Init  0x0000000000000000       0x32 ./src/utils/md5.o
 .text.MD5Update
                0x0000000000000000       0xdc ./src/utils/md5.o
 .text.MD5Final
                0x0000000000000000       0xa2 ./src/utils/md5.o
 .text.md5_vector
                0x0000000000000000       0x60 ./src/utils/md5.o
 .debug_info    0x0000000000000000      0xd21 ./src/utils/md5.o
 .debug_abbrev  0x0000000000000000      0x2c1 ./src/utils/md5.o
 .debug_loc     0x0000000000000000      0xb93 ./src/utils/md5.o
 .debug_aranges
                0x0000000000000000       0x40 ./src/utils/md5.o
 .debug_ranges  0x0000000000000000       0x48 ./src/utils/md5.o
 .debug_line    0x0000000000000000      0x9a3 ./src/utils/md5.o
 .debug_str     0x0000000000000000      0x61c ./src/utils/md5.o
 .comment       0x0000000000000000       0x34 ./src/utils/md5.o
 .debug_frame   0x0000000000000000      0x118 ./src/utils/md5.o
 .text          0x0000000000000000        0x0 ./src/modbus/coils.o
 .data          0x0000000000000000        0x0 ./src/modbus/coils.o
 .bss           0x0000000000000000        0x0 ./src/modbus/coils.o
 .text.mb_coils_init
                0x0000000000000000        0x2 ./src/modbus/coils.o
 .text.modbus_coil_update
                0x0000000000000000        0x2 ./src/modbus/coils.o
 .bss.mb_coils  0x0000000000000000        0x0 ./src/modbus/coils.o
 .text          0x0000000000000000        0x0 ./src/modbus/discrete_input.o
 .data          0x0000000000000000        0x0 ./src/modbus/discrete_input.o
 .bss           0x0000000000000000        0x0 ./src/modbus/discrete_input.o
 .text          0x0000000000000000        0x0 ./src/modbus/iregs.o
 .data          0x0000000000000000        0x0 ./src/modbus/iregs.o
 .bss           0x0000000000000000        0x0 ./src/modbus/iregs.o
 .text          0x0000000000000000        0x0 ./src/modbus/regs.o
 .data          0x0000000000000000        0x0 ./src/modbus/regs.o
 .bss           0x0000000000000000        0x0 ./src/modbus/regs.o
 .text.modbus_reg_buf_addr
                0x0000000000000000       0x3e ./src/modbus/regs.o
 .text          0x0000000000000000        0x0 ./src/Main.o
 .data          0x0000000000000000        0x0 ./src/Main.o
 .bss           0x0000000000000000        0x0 ./src/Main.o
 .data.smail_64x64_1
                0x0000000000000000      0x200 ./src/Main.o
 .data.smail_64x64_2
                0x0000000000000000      0x200 ./src/Main.o
 .text          0x0000000000000000        0x0 ./src/adc.o
 .data          0x0000000000000000        0x0 ./src/adc.o
 .bss           0x0000000000000000        0x0 ./src/adc.o
 .text          0x0000000000000000        0x0 ./src/appinfo.o
 .data          0x0000000000000000        0x0 ./src/appinfo.o
 .bss           0x0000000000000000        0x0 ./src/appinfo.o
 .text          0x0000000000000000        0x0 ./src/bmp.o
 .data          0x0000000000000000        0x0 ./src/bmp.o
 .bss           0x0000000000000000        0x0 ./src/bmp.o
 .debug_info    0x0000000000000000       0x64 ./src/bmp.o
 .debug_abbrev  0x0000000000000000       0x26 ./src/bmp.o
 .debug_aranges
                0x0000000000000000       0x18 ./src/bmp.o
 .debug_line    0x0000000000000000       0x1d ./src/bmp.o
 .debug_str     0x0000000000000000      0x169 ./src/bmp.o
 .comment       0x0000000000000000       0x34 ./src/bmp.o
 .text          0x0000000000000000        0x0 ./src/configtool.o
 .data          0x0000000000000000        0x0 ./src/configtool.o
 .bss           0x0000000000000000        0x0 ./src/configtool.o
 .text.cfg_get_ota
                0x0000000000000000       0x54 ./src/configtool.o
 .text.cfg_update_ota
                0x0000000000000000       0x88 ./src/configtool.o
 .text.cfg_update_mb_addr
                0x0000000000000000       0x74 ./src/configtool.o
 .rodata.__FUNCTION__.4097
                0x0000000000000000        0xc ./src/configtool.o
 .rodata.__FUNCTION__.4102
                0x0000000000000000        0xf ./src/configtool.o
 .rodata.__FUNCTION__.4113
                0x0000000000000000       0x13 ./src/configtool.o
 .text          0x0000000000000000        0x0 ./src/display.o
 .data          0x0000000000000000        0x0 ./src/display.o
 .bss           0x0000000000000000        0x0 ./src/display.o
 .text.display_string
                0x0000000000000000      0x16a ./src/display.o
 .text.display_printline
                0x0000000000000000       0x48 ./src/display.o
 .rodata.display_string.str1.4
                0x0000000000000000        0x3 ./src/display.o
 .text          0x0000000000000000        0x0 ./src/liblightmodbus-impl.o
 .data          0x0000000000000000        0x0 ./src/liblightmodbus-impl.o
 .bss           0x0000000000000000        0x0 ./src/liblightmodbus-impl.o
 .text.modbusDefaultAllocator
                0x0000000000000000       0x46 ./src/liblightmodbus-impl.o
 .text.modbusBufferDestroy
                0x0000000000000000        0x8 ./src/liblightmodbus-impl.o
 .text.modbusBuildExceptionPDU
                0x0000000000000000       0x2c ./src/liblightmodbus-impl.o
 .text.modbusBuildExceptionRTU
                0x0000000000000000       0x7c ./src/liblightmodbus-impl.o
 .text.modbusBuildExceptionTCP
                0x0000000000000000       0x7a ./src/liblightmodbus-impl.o
 .text.modbusParseRequestPDU
                0x0000000000000000       0x20 ./src/liblightmodbus-impl.o
 .text.modbusParseRequestTCP
                0x0000000000000000       0xda ./src/liblightmodbus-impl.o
 .text.modbusErrorSourceStr
                0x0000000000000000       0x20 ./src/liblightmodbus-impl.o
 .text.modbusExceptionCodeStr
                0x0000000000000000       0x20 ./src/liblightmodbus-impl.o
 .text.modbusDataTypeStr
                0x0000000000000000       0x22 ./src/liblightmodbus-impl.o
 .text.modbusRegisterQueryStr
                0x0000000000000000       0x20 ./src/liblightmodbus-impl.o
 .rodata.CSWTCH.35
                0x0000000000000000       0x10 ./src/liblightmodbus-impl.o
 .rodata.CSWTCH.36
                0x0000000000000000       0x20 ./src/liblightmodbus-impl.o
 .rodata.CSWTCH.37
                0x0000000000000000       0x20 ./src/liblightmodbus-impl.o
 .rodata.CSWTCH.38
                0x0000000000000000       0x10 ./src/liblightmodbus-impl.o
 .rodata.modbusDataTypeStr.str1.4
                0x0000000000000000       0x19 ./src/liblightmodbus-impl.o
 .rodata.modbusErrorSourceStr.str1.4
                0x0000000000000000       0x21 ./src/liblightmodbus-impl.o
 .rodata.modbusExceptionCodeStr.str1.4
                0x0000000000000000       0x1e ./src/liblightmodbus-impl.o
 .rodata.modbusRegisterQueryStr.str1.4
                0x0000000000000000       0x1e ./src/liblightmodbus-impl.o
 .text          0x0000000000000000        0x0 ./src/modbus.o
 .data          0x0000000000000000        0x0 ./src/modbus.o
 .bss           0x0000000000000000        0x0 ./src/modbus.o
 .text.modbus_deinit
                0x0000000000000000       0x4a ./src/modbus.o
 .text.modbus_lasttime_recv
                0x0000000000000000        0xe ./src/modbus.o
 .text.modbus_is_receiving
                0x0000000000000000       0x12 ./src/modbus.o
 .text          0x0000000000000000        0x0 ./src/oled.o
 .data          0x0000000000000000        0x0 ./src/oled.o
 .bss           0x0000000000000000        0x0 ./src/oled.o
 .text.OLED_ColorTurn
                0x0000000000000000       0x20 ./src/oled.o
 .text.OLED_DisplayTurn
                0x0000000000000000       0x48 ./src/oled.o
 .text.OLED_DisPlay_Off
                0x0000000000000000       0x30 ./src/oled.o
 .text.OLED_clear_buffer
                0x0000000000000000       0xb2 ./src/oled.o
 .text.OLED_Pow
                0x0000000000000000       0x1a ./src/oled.o
 .text.OLED_ShowPicture
                0x0000000000000000       0xe0 ./src/oled.o
 .text          0x0000000000000000        0x0 ./src/onewire.o
 .data          0x0000000000000000        0x0 ./src/onewire.o
 .bss           0x0000000000000000        0x0 ./src/onewire.o
 .text.read_function
                0x0000000000000000       0x2a ./src/onewire.o
 .text.mdc02_outputtotemp
                0x0000000000000000       0x4a ./src/onewire.o
 .text.readrom  0x0000000000000000       0x54 ./src/onewire.o
 .text.onewire_read_rom
                0x0000000000000000       0x56 ./src/onewire.o
 .text.onewire_search
                0x0000000000000000      0x1a2 ./src/onewire.o
 .text.onewire_first
                0x0000000000000000       0x38 ./src/onewire.o
 .text.onewire_next
                0x0000000000000000        0x8 ./src/onewire.o
 .text.onewire_finddevic_fun
                0x0000000000000000       0x92 ./src/onewire.o
 .text.onewire_verify
                0x0000000000000000       0xc4 ./src/onewire.o
 .text.onewire_targetsetup
                0x0000000000000000       0x40 ./src/onewire.o
 .text.onewire_familyshipsetup
                0x0000000000000000       0x28 ./src/onewire.o
 .text.onewirefamilyskipsetup
                0x0000000000000000        0x8 ./src/onewire.o
 .text.read_command
                0x0000000000000000        0xc ./src/onewire.o
 .text.mdc02_writescratchpadext_skiprom
                0x0000000000000000       0x50 ./src/onewire.o
 .text.MY18B20_outputtotemp
                0x0000000000000000       0x24 ./src/onewire.o
 .rodata.onewire_finddevic_fun.str1.4
                0x0000000000000000       0x1b ./src/onewire.o
 .rodata.onewire_read_rom.str1.4
                0x0000000000000000       0x19 ./src/onewire.o
 .rodata.onewire_search.str1.4
                0x0000000000000000       0x21 ./src/onewire.o
 .rodata.read_function.str1.4
                0x0000000000000000        0x7 ./src/onewire.o
 .text          0x0000000000000000        0x0 ./src/sensor.o
 .data          0x0000000000000000        0x0 ./src/sensor.o
 .bss           0x0000000000000000        0x0 ./src/sensor.o
 .text          0x0000000000000000        0x0 ./src/storage.o
 .data          0x0000000000000000        0x0 ./src/storage.o
 .bss           0x0000000000000000        0x0 ./src/storage.o
 .text.st_erase_all
                0x0000000000000000       0x7a ./src/storage.o
 .text.st_delete_item
                0x0000000000000000      0x21c ./src/storage.o
 .rodata.__FUNCTION__.4223
                0x0000000000000000        0xd ./src/storage.o
 .rodata.st_delete_item.str1.4
                0x0000000000000000       0x3a ./src/storage.o
 .rodata.st_erase_all.str1.4
                0x0000000000000000       0x21 ./src/storage.o
 .text          0x0000000000000000        0x0 ./src/uid.o
 .data          0x0000000000000000        0x0 ./src/uid.o
 .bss           0x0000000000000000        0x0 ./src/uid.o
 .text          0x0000000000000000        0x0 ./src/version.o
 .data          0x0000000000000000        0x0 ./src/version.o
 .bss           0x0000000000000000        0x0 ./src/version.o
 .text.version_str
                0x0000000000000000       0x7a ./src/version.o
 .rodata.version_str.str1.4
                0x0000000000000000       0x15 ./src/version.o
 .debug_info    0x0000000000000000      0x9c4 ./src/version.o
 .debug_abbrev  0x0000000000000000      0x22a ./src/version.o
 .debug_loc     0x0000000000000000      0x139 ./src/version.o
 .debug_aranges
                0x0000000000000000       0x20 ./src/version.o
 .debug_ranges  0x0000000000000000       0x10 ./src/version.o
 .debug_line    0x0000000000000000      0x2b3 ./src/version.o
 .debug_str     0x0000000000000000      0x58e ./src/version.o
 .comment       0x0000000000000000       0x34 ./src/version.o
 .debug_frame   0x0000000000000000       0x34 ./src/version.o
 .text          0x0000000000000000        0x0 ./src/worktime.o
 .data          0x0000000000000000        0x0 ./src/worktime.o
 .bss           0x0000000000000000        0x0 ./src/worktime.o
 .text          0x0000000000000000        0x0 ./StdPeriphDriver/CH58x_adc.o
 .data          0x0000000000000000        0x0 ./StdPeriphDriver/CH58x_adc.o
 .bss           0x0000000000000000        0x0 ./StdPeriphDriver/CH58x_adc.o
 .text.ADC_ExtDiffChSampInit
                0x0000000000000000       0x24 ./StdPeriphDriver/CH58x_adc.o
 .text.ADC_InterTSSampInit
                0x0000000000000000       0x28 ./StdPeriphDriver/CH58x_adc.o
 .text.ADC_InterBATSampInit
                0x0000000000000000       0x1e ./StdPeriphDriver/CH58x_adc.o
 .text.TouchKey_ChSampInit
                0x0000000000000000       0x1a ./StdPeriphDriver/CH58x_adc.o
 .text.TouchKey_ExcutSingleConver
                0x0000000000000000       0x2e ./StdPeriphDriver/CH58x_adc.o
 .text.ADC_AutoConverCycle
                0x0000000000000000        0xa ./StdPeriphDriver/CH58x_adc.o
 .text.ADC_DMACfg
                0x0000000000000000       0x42 ./StdPeriphDriver/CH58x_adc.o
 .text.ADC_GetCurrentTS
                0x0000000000000000       0x36 ./StdPeriphDriver/CH58x_adc.o
 .text          0x0000000000000000        0x0 ./StdPeriphDriver/CH58x_clk.o
 .data          0x0000000000000000        0x0 ./StdPeriphDriver/CH58x_clk.o
 .bss           0x0000000000000000        0x0 ./StdPeriphDriver/CH58x_clk.o
 .text.LClk32K_Select
                0x0000000000000000       0x36 ./StdPeriphDriver/CH58x_clk.o
 .text.HSECFG_Current
                0x0000000000000000       0x2e ./StdPeriphDriver/CH58x_clk.o
 .text.HSECFG_Capacitance
                0x0000000000000000       0x32 ./StdPeriphDriver/CH58x_clk.o
 .text.LSECFG_Current
                0x0000000000000000       0x2e ./StdPeriphDriver/CH58x_clk.o
 .text.LSECFG_Capacitance
                0x0000000000000000       0x30 ./StdPeriphDriver/CH58x_clk.o
 .text.Calibration_LSI
                0x0000000000000000      0x270 ./StdPeriphDriver/CH58x_clk.o
 .text.RTC_InitTime
                0x0000000000000000      0x18e ./StdPeriphDriver/CH58x_clk.o
 .text.RTC_GetTime
                0x0000000000000000      0x15c ./StdPeriphDriver/CH58x_clk.o
 .text.RTC_SetCycle32k
                0x0000000000000000       0x56 ./StdPeriphDriver/CH58x_clk.o
 .text.RTC_GetCycle32k
                0x0000000000000000       0x18 ./StdPeriphDriver/CH58x_clk.o
 .text.RTC_TMRFunCfg
                0x0000000000000000       0x3c ./StdPeriphDriver/CH58x_clk.o
 .text.RTC_TRIGFunCfg
                0x0000000000000000       0x44 ./StdPeriphDriver/CH58x_clk.o
 .text.RTC_ModeFunDisable
                0x0000000000000000       0x3c ./StdPeriphDriver/CH58x_clk.o
 .text.RTC_GetITFlag
                0x0000000000000000       0x1a ./StdPeriphDriver/CH58x_clk.o
 .text.RTC_ClearITFlag
                0x0000000000000000       0x20 ./StdPeriphDriver/CH58x_clk.o
 .debug_info    0x0000000000000000     0x131f ./StdPeriphDriver/CH58x_clk.o
 .debug_abbrev  0x0000000000000000      0x32c ./StdPeriphDriver/CH58x_clk.o
 .debug_loc     0x0000000000000000      0x6f5 ./StdPeriphDriver/CH58x_clk.o
 .debug_aranges
                0x0000000000000000       0x90 ./StdPeriphDriver/CH58x_clk.o
 .debug_ranges  0x0000000000000000       0x80 ./StdPeriphDriver/CH58x_clk.o
 .debug_line    0x0000000000000000     0x1714 ./StdPeriphDriver/CH58x_clk.o
 .debug_str     0x0000000000000000      0xc84 ./StdPeriphDriver/CH58x_clk.o
 .comment       0x0000000000000000       0x34 ./StdPeriphDriver/CH58x_clk.o
 .debug_frame   0x0000000000000000      0x158 ./StdPeriphDriver/CH58x_clk.o
 .text          0x0000000000000000        0x0 ./StdPeriphDriver/CH58x_flash.o
 .data          0x0000000000000000        0x0 ./StdPeriphDriver/CH58x_flash.o
 .bss           0x0000000000000000        0x0 ./StdPeriphDriver/CH58x_flash.o
 .text.FLASH_ROM_READ
                0x0000000000000000       0x1c ./StdPeriphDriver/CH58x_flash.o
 .text.UserOptionByteConfig
                0x0000000000000000       0xdc ./StdPeriphDriver/CH58x_flash.o
 .text.UserOptionByteClose_SWD
                0x0000000000000000       0x7e ./StdPeriphDriver/CH58x_flash.o
 .text.UserOptionByte_Active
                0x0000000000000000       0x44 ./StdPeriphDriver/CH58x_flash.o
 .debug_info    0x0000000000000000      0xf22 ./StdPeriphDriver/CH58x_flash.o
 .debug_abbrev  0x0000000000000000      0x2b4 ./StdPeriphDriver/CH58x_flash.o
 .debug_loc     0x0000000000000000      0x1db ./StdPeriphDriver/CH58x_flash.o
 .debug_aranges
                0x0000000000000000       0x38 ./StdPeriphDriver/CH58x_flash.o
 .debug_ranges  0x0000000000000000       0x28 ./StdPeriphDriver/CH58x_flash.o
 .debug_line    0x0000000000000000      0x5e0 ./StdPeriphDriver/CH58x_flash.o
 .debug_str     0x0000000000000000      0x930 ./StdPeriphDriver/CH58x_flash.o
 .comment       0x0000000000000000       0x34 ./StdPeriphDriver/CH58x_flash.o
 .debug_frame   0x0000000000000000       0x84 ./StdPeriphDriver/CH58x_flash.o
 .text          0x0000000000000000        0x0 ./StdPeriphDriver/CH58x_gpio.o
 .data          0x0000000000000000        0x0 ./StdPeriphDriver/CH58x_gpio.o
 .bss           0x0000000000000000        0x0 ./StdPeriphDriver/CH58x_gpio.o
 .text.GPIOA_ITModeCfg
                0x0000000000000000       0x82 ./StdPeriphDriver/CH58x_gpio.o
 .text.GPIOB_ITModeCfg
                0x0000000000000000       0x8a ./StdPeriphDriver/CH58x_gpio.o
 .text.GPIOPinRemap
                0x0000000000000000       0x1a ./StdPeriphDriver/CH58x_gpio.o
 .text.GPIOAGPPCfg
                0x0000000000000000       0x1a ./StdPeriphDriver/CH58x_gpio.o
 .text          0x0000000000000000        0x0 ./StdPeriphDriver/CH58x_i2c.o
 .data          0x0000000000000000        0x0 ./StdPeriphDriver/CH58x_i2c.o
 .bss           0x0000000000000000        0x0 ./StdPeriphDriver/CH58x_i2c.o
 .text.I2C_Init
                0x0000000000000000      0x146 ./StdPeriphDriver/CH58x_i2c.o
 .text.I2C_Cmd  0x0000000000000000       0x20 ./StdPeriphDriver/CH58x_i2c.o
 .text.I2C_GenerateSTART
                0x0000000000000000       0x22 ./StdPeriphDriver/CH58x_i2c.o
 .text.I2C_GenerateSTOP
                0x0000000000000000       0x22 ./StdPeriphDriver/CH58x_i2c.o
 .text.I2C_AcknowledgeConfig
                0x0000000000000000       0x22 ./StdPeriphDriver/CH58x_i2c.o
 .text.I2C_OwnAddress2Config
                0x0000000000000000       0x28 ./StdPeriphDriver/CH58x_i2c.o
 .text.I2C_DualAddressCmd
                0x0000000000000000       0x20 ./StdPeriphDriver/CH58x_i2c.o
 .text.I2C_GeneralCallCmd
                0x0000000000000000       0x22 ./StdPeriphDriver/CH58x_i2c.o
 .text.I2C_ITConfig
                0x0000000000000000       0x1e ./StdPeriphDriver/CH58x_i2c.o
 .text.I2C_SendData
                0x0000000000000000        0xa ./StdPeriphDriver/CH58x_i2c.o
 .text.I2C_ReceiveData
                0x0000000000000000        0xe ./StdPeriphDriver/CH58x_i2c.o
 .text.I2C_Send7bitAddress
                0x0000000000000000       0x18 ./StdPeriphDriver/CH58x_i2c.o
 .text.I2C_SoftwareResetCmd
                0x0000000000000000       0x1a ./StdPeriphDriver/CH58x_i2c.o
 .text.I2C_NACKPositionConfig
                0x0000000000000000       0x2a ./StdPeriphDriver/CH58x_i2c.o
 .text.I2C_SMBusAlertConfig
                0x0000000000000000       0x24 ./StdPeriphDriver/CH58x_i2c.o
 .text.I2C_TransmitPEC
                0x0000000000000000       0x20 ./StdPeriphDriver/CH58x_i2c.o
 .text.I2C_PECPositionConfig
                0x0000000000000000        0x8 ./StdPeriphDriver/CH58x_i2c.o
 .text.I2C_CalculatePEC
                0x0000000000000000       0x22 ./StdPeriphDriver/CH58x_i2c.o
 .text.I2C_GetPEC
                0x0000000000000000        0xc ./StdPeriphDriver/CH58x_i2c.o
 .text.I2C_ARPCmd
                0x0000000000000000       0x20 ./StdPeriphDriver/CH58x_i2c.o
 .text.I2C_StretchClockCmd
                0x0000000000000000       0x22 ./StdPeriphDriver/CH58x_i2c.o
 .text.I2C_FastModeDutyCycleConfig
                0x0000000000000000       0x24 ./StdPeriphDriver/CH58x_i2c.o
 .text.I2C_CheckEvent
                0x0000000000000000       0x20 ./StdPeriphDriver/CH58x_i2c.o
 .text.I2C_GetLastEvent
                0x0000000000000000       0x16 ./StdPeriphDriver/CH58x_i2c.o
 .text.I2C_GetFlagStatus
                0x0000000000000000       0x3a ./StdPeriphDriver/CH58x_i2c.o
 .text.I2C_ClearFlag
                0x0000000000000000       0x12 ./StdPeriphDriver/CH58x_i2c.o
 .text.I2C_GetITStatus
                0x0000000000000000       0x26 ./StdPeriphDriver/CH58x_i2c.o
 .text.I2C_ClearITPendingBit
                0x0000000000000000        0x8 ./StdPeriphDriver/CH58x_i2c.o
 .debug_info    0x0000000000000000     0x1357 ./StdPeriphDriver/CH58x_i2c.o
 .debug_abbrev  0x0000000000000000      0x354 ./StdPeriphDriver/CH58x_i2c.o
 .debug_loc     0x0000000000000000      0x591 ./StdPeriphDriver/CH58x_i2c.o
 .debug_aranges
                0x0000000000000000       0xe8 ./StdPeriphDriver/CH58x_i2c.o
 .debug_ranges  0x0000000000000000       0xd8 ./StdPeriphDriver/CH58x_i2c.o
 .debug_line    0x0000000000000000      0xe88 ./StdPeriphDriver/CH58x_i2c.o
 .debug_str     0x0000000000000000      0xcac ./StdPeriphDriver/CH58x_i2c.o
 .comment       0x0000000000000000       0x34 ./StdPeriphDriver/CH58x_i2c.o
 .debug_frame   0x0000000000000000      0x1f4 ./StdPeriphDriver/CH58x_i2c.o
 .text          0x0000000000000000        0x0 ./StdPeriphDriver/CH58x_pwr.o
 .data          0x0000000000000000        0x0 ./StdPeriphDriver/CH58x_pwr.o
 .bss           0x0000000000000000        0x0 ./StdPeriphDriver/CH58x_pwr.o
 .text.PWR_DCDCCfg
                0x0000000000000000       0xae ./StdPeriphDriver/CH58x_pwr.o
 .text.PWR_UnitModCfg
                0x0000000000000000       0x7c ./StdPeriphDriver/CH58x_pwr.o
 .text.PWR_PeriphClkCfg
                0x0000000000000000       0x4e ./StdPeriphDriver/CH58x_pwr.o
 .text.PWR_PeriphWakeUpCfg
                0x0000000000000000       0x90 ./StdPeriphDriver/CH58x_pwr.o
 .text.PowerMonitor
                0x0000000000000000       0xc0 ./StdPeriphDriver/CH58x_pwr.o
 .highcode      0x0000000000000000      0x2bc ./StdPeriphDriver/CH58x_pwr.o
 .debug_info    0x0000000000000000     0x130e ./StdPeriphDriver/CH58x_pwr.o
 .debug_abbrev  0x0000000000000000      0x30e ./StdPeriphDriver/CH58x_pwr.o
 .debug_loc     0x0000000000000000      0x2e3 ./StdPeriphDriver/CH58x_pwr.o
 .debug_aranges
                0x0000000000000000       0x60 ./StdPeriphDriver/CH58x_pwr.o
 .debug_ranges  0x0000000000000000       0x50 ./StdPeriphDriver/CH58x_pwr.o
 .debug_line    0x0000000000000000      0xfd3 ./StdPeriphDriver/CH58x_pwr.o
 .debug_str     0x0000000000000000      0xc42 ./StdPeriphDriver/CH58x_pwr.o
 .comment       0x0000000000000000       0x34 ./StdPeriphDriver/CH58x_pwr.o
 .debug_frame   0x0000000000000000      0x108 ./StdPeriphDriver/CH58x_pwr.o
 .text          0x0000000000000000        0x0 ./StdPeriphDriver/CH58x_spi1.o
 .data          0x0000000000000000        0x0 ./StdPeriphDriver/CH58x_spi1.o
 .bss           0x0000000000000000        0x0 ./StdPeriphDriver/CH58x_spi1.o
 .text.SPI1_MasterDefInit
                0x0000000000000000       0x26 ./StdPeriphDriver/CH58x_spi1.o
 .text.SPI1_CLKCfg
                0x0000000000000000       0x2a ./StdPeriphDriver/CH58x_spi1.o
 .text.SPI1_DataMode
                0x0000000000000000       0x6a ./StdPeriphDriver/CH58x_spi1.o
 .text.SPI1_MasterSendByte
                0x0000000000000000       0x24 ./StdPeriphDriver/CH58x_spi1.o
 .text.SPI1_MasterRecvByte
                0x0000000000000000       0x2a ./StdPeriphDriver/CH58x_spi1.o
 .text.SPI1_MasterTrans
                0x0000000000000000       0x4c ./StdPeriphDriver/CH58x_spi1.o
 .text.SPI1_MasterRecv
                0x0000000000000000       0x42 ./StdPeriphDriver/CH58x_spi1.o
 .debug_info    0x0000000000000000      0xdbf ./StdPeriphDriver/CH58x_spi1.o
 .debug_abbrev  0x0000000000000000      0x273 ./StdPeriphDriver/CH58x_spi1.o
 .debug_loc     0x0000000000000000       0xba ./StdPeriphDriver/CH58x_spi1.o
 .debug_aranges
                0x0000000000000000       0x50 ./StdPeriphDriver/CH58x_spi1.o
 .debug_ranges  0x0000000000000000       0x40 ./StdPeriphDriver/CH58x_spi1.o
 .debug_line    0x0000000000000000      0x678 ./StdPeriphDriver/CH58x_spi1.o
 .debug_str     0x0000000000000000      0x937 ./StdPeriphDriver/CH58x_spi1.o
 .comment       0x0000000000000000       0x34 ./StdPeriphDriver/CH58x_spi1.o
 .debug_frame   0x0000000000000000       0x80 ./StdPeriphDriver/CH58x_spi1.o
 .text          0x0000000000000000        0x0 ./StdPeriphDriver/CH58x_sys.o
 .data          0x0000000000000000        0x0 ./StdPeriphDriver/CH58x_sys.o
 .bss           0x0000000000000000        0x0 ./StdPeriphDriver/CH58x_sys.o
 .text.SYS_GetInfoSta
                0x0000000000000000       0x24 ./StdPeriphDriver/CH58x_sys.o
 .text.SYS_DisableAllIrq
                0x0000000000000000       0x1c ./StdPeriphDriver/CH58x_sys.o
 .text.SYS_RecoverIrq
                0x0000000000000000       0x14 ./StdPeriphDriver/CH58x_sys.o
 .text.SYS_GetSysTickCnt
                0x0000000000000000        0xa ./StdPeriphDriver/CH58x_sys.o
 .text.WWDG_ITCfg
                0x0000000000000000       0x36 ./StdPeriphDriver/CH58x_sys.o
 .text.WWDG_ResetCfg
                0x0000000000000000       0x36 ./StdPeriphDriver/CH58x_sys.o
 .text.WWDG_ClearFlag
                0x0000000000000000       0x2a ./StdPeriphDriver/CH58x_sys.o
 .text          0x0000000000000000        0x0 ./StdPeriphDriver/CH58x_timer0.o
 .data          0x0000000000000000        0x0 ./StdPeriphDriver/CH58x_timer0.o
 .bss           0x0000000000000000        0x0 ./StdPeriphDriver/CH58x_timer0.o
 .text.TMR0_EXTSingleCounterInit
                0x0000000000000000       0x1a ./StdPeriphDriver/CH58x_timer0.o
 .text.TMR0_PWMInit
                0x0000000000000000       0x18 ./StdPeriphDriver/CH58x_timer0.o
 .text.TMR0_CapInit
                0x0000000000000000       0x1a ./StdPeriphDriver/CH58x_timer0.o
 .text          0x0000000000000000        0x0 ./StdPeriphDriver/CH58x_timer1.o
 .data          0x0000000000000000        0x0 ./StdPeriphDriver/CH58x_timer1.o
 .bss           0x0000000000000000        0x0 ./StdPeriphDriver/CH58x_timer1.o
 .text.TMR1_EXTSingleCounterInit
                0x0000000000000000       0x1a ./StdPeriphDriver/CH58x_timer1.o
 .text.TMR1_PWMInit
                0x0000000000000000       0x18 ./StdPeriphDriver/CH58x_timer1.o
 .text.TMR1_CapInit
                0x0000000000000000       0x1a ./StdPeriphDriver/CH58x_timer1.o
 .text.TMR1_DMACfg
                0x0000000000000000       0x20 ./StdPeriphDriver/CH58x_timer1.o
 .text          0x0000000000000000        0x0 ./StdPeriphDriver/CH58x_timer2.o
 .data          0x0000000000000000        0x0 ./StdPeriphDriver/CH58x_timer2.o
 .bss           0x0000000000000000        0x0 ./StdPeriphDriver/CH58x_timer2.o
 .text.TMR2_TimerInit
                0x0000000000000000       0x16 ./StdPeriphDriver/CH58x_timer2.o
 .text.TMR2_EXTSingleCounterInit
                0x0000000000000000       0x1a ./StdPeriphDriver/CH58x_timer2.o
 .text.TMR2_PWMInit
                0x0000000000000000       0x18 ./StdPeriphDriver/CH58x_timer2.o
 .text.TMR2_CapInit
                0x0000000000000000       0x1a ./StdPeriphDriver/CH58x_timer2.o
 .text.TMR2_DMACfg
                0x0000000000000000       0x20 ./StdPeriphDriver/CH58x_timer2.o
 .debug_info    0x0000000000000000      0xe58 ./StdPeriphDriver/CH58x_timer2.o
 .debug_abbrev  0x0000000000000000      0x246 ./StdPeriphDriver/CH58x_timer2.o
 .debug_loc     0x0000000000000000       0x84 ./StdPeriphDriver/CH58x_timer2.o
 .debug_aranges
                0x0000000000000000       0x40 ./StdPeriphDriver/CH58x_timer2.o
 .debug_ranges  0x0000000000000000       0x30 ./StdPeriphDriver/CH58x_timer2.o
 .debug_line    0x0000000000000000      0x410 ./StdPeriphDriver/CH58x_timer2.o
 .debug_str     0x0000000000000000      0x9b5 ./StdPeriphDriver/CH58x_timer2.o
 .comment       0x0000000000000000       0x34 ./StdPeriphDriver/CH58x_timer2.o
 .debug_frame   0x0000000000000000       0x60 ./StdPeriphDriver/CH58x_timer2.o
 .text          0x0000000000000000        0x0 ./StdPeriphDriver/CH58x_timer3.o
 .data          0x0000000000000000        0x0 ./StdPeriphDriver/CH58x_timer3.o
 .bss           0x0000000000000000        0x0 ./StdPeriphDriver/CH58x_timer3.o
 .text.TMR3_TimerInit
                0x0000000000000000       0x16 ./StdPeriphDriver/CH58x_timer3.o
 .text.TMR3_EXTSingleCounterInit
                0x0000000000000000       0x1a ./StdPeriphDriver/CH58x_timer3.o
 .text.TMR3_PWMInit
                0x0000000000000000       0x18 ./StdPeriphDriver/CH58x_timer3.o
 .text.TMR3_CapInit
                0x0000000000000000       0x1a ./StdPeriphDriver/CH58x_timer3.o
 .debug_info    0x0000000000000000      0xdb4 ./StdPeriphDriver/CH58x_timer3.o
 .debug_abbrev  0x0000000000000000      0x235 ./StdPeriphDriver/CH58x_timer3.o
 .debug_loc     0x0000000000000000       0x84 ./StdPeriphDriver/CH58x_timer3.o
 .debug_aranges
                0x0000000000000000       0x38 ./StdPeriphDriver/CH58x_timer3.o
 .debug_ranges  0x0000000000000000       0x28 ./StdPeriphDriver/CH58x_timer3.o
 .debug_line    0x0000000000000000      0x360 ./StdPeriphDriver/CH58x_timer3.o
 .debug_str     0x0000000000000000      0x95a ./StdPeriphDriver/CH58x_timer3.o
 .comment       0x0000000000000000       0x34 ./StdPeriphDriver/CH58x_timer3.o
 .debug_frame   0x0000000000000000       0x50 ./StdPeriphDriver/CH58x_timer3.o
 .text          0x0000000000000000        0x0 ./StdPeriphDriver/CH58x_uart0.o
 .data          0x0000000000000000        0x0 ./StdPeriphDriver/CH58x_uart0.o
 .bss           0x0000000000000000        0x0 ./StdPeriphDriver/CH58x_uart0.o
 .text.UART0_BaudRateCfg
                0x0000000000000000       0x36 ./StdPeriphDriver/CH58x_uart0.o
 .text.UART0_DefInit
                0x0000000000000000       0x38 ./StdPeriphDriver/CH58x_uart0.o
 .text.UART0_ByteTrigCfg
                0x0000000000000000       0x1a ./StdPeriphDriver/CH58x_uart0.o
 .text.UART0_INTCfg
                0x0000000000000000       0x2a ./StdPeriphDriver/CH58x_uart0.o
 .text.UART0_Reset
                0x0000000000000000        0xe ./StdPeriphDriver/CH58x_uart0.o
 .text.UART0_SendString
                0x0000000000000000       0x28 ./StdPeriphDriver/CH58x_uart0.o
 .text.UART0_RecvString
                0x0000000000000000       0x2a ./StdPeriphDriver/CH58x_uart0.o
 .debug_info    0x0000000000000000      0xe3a ./StdPeriphDriver/CH58x_uart0.o
 .debug_abbrev  0x0000000000000000      0x2aa ./StdPeriphDriver/CH58x_uart0.o
 .debug_loc     0x0000000000000000      0x1ed ./StdPeriphDriver/CH58x_uart0.o
 .debug_aranges
                0x0000000000000000       0x50 ./StdPeriphDriver/CH58x_uart0.o
 .debug_ranges  0x0000000000000000       0x40 ./StdPeriphDriver/CH58x_uart0.o
 .debug_line    0x0000000000000000      0x547 ./StdPeriphDriver/CH58x_uart0.o
 .debug_str     0x0000000000000000      0x950 ./StdPeriphDriver/CH58x_uart0.o
 .comment       0x0000000000000000       0x34 ./StdPeriphDriver/CH58x_uart0.o
 .debug_frame   0x0000000000000000       0x9c ./StdPeriphDriver/CH58x_uart0.o
 .text          0x0000000000000000        0x0 ./StdPeriphDriver/CH58x_uart1.o
 .data          0x0000000000000000        0x0 ./StdPeriphDriver/CH58x_uart1.o
 .bss           0x0000000000000000        0x0 ./StdPeriphDriver/CH58x_uart1.o
 .text.UART1_ByteTrigCfg
                0x0000000000000000       0x1a ./StdPeriphDriver/CH58x_uart1.o
 .text.UART1_INTCfg
                0x0000000000000000       0x2a ./StdPeriphDriver/CH58x_uart1.o
 .text.UART1_Reset
                0x0000000000000000        0xe ./StdPeriphDriver/CH58x_uart1.o
 .text.UART1_SendString
                0x0000000000000000       0x28 ./StdPeriphDriver/CH58x_uart1.o
 .text.UART1_RecvString
                0x0000000000000000       0x2a ./StdPeriphDriver/CH58x_uart1.o
 .text          0x0000000000000000        0x0 ./StdPeriphDriver/CH58x_uart2.o
 .data          0x0000000000000000        0x0 ./StdPeriphDriver/CH58x_uart2.o
 .bss           0x0000000000000000        0x0 ./StdPeriphDriver/CH58x_uart2.o
 .text.UART2_BaudRateCfg
                0x0000000000000000       0x36 ./StdPeriphDriver/CH58x_uart2.o
 .text.UART2_DefInit
                0x0000000000000000       0x38 ./StdPeriphDriver/CH58x_uart2.o
 .text.UART2_ByteTrigCfg
                0x0000000000000000       0x1a ./StdPeriphDriver/CH58x_uart2.o
 .text.UART2_INTCfg
                0x0000000000000000       0x2a ./StdPeriphDriver/CH58x_uart2.o
 .text.UART2_Reset
                0x0000000000000000        0xe ./StdPeriphDriver/CH58x_uart2.o
 .text.UART2_SendString
                0x0000000000000000       0x28 ./StdPeriphDriver/CH58x_uart2.o
 .text.UART2_RecvString
                0x0000000000000000       0x2a ./StdPeriphDriver/CH58x_uart2.o
 .debug_info    0x0000000000000000      0xe3a ./StdPeriphDriver/CH58x_uart2.o
 .debug_abbrev  0x0000000000000000      0x2aa ./StdPeriphDriver/CH58x_uart2.o
 .debug_loc     0x0000000000000000      0x1ed ./StdPeriphDriver/CH58x_uart2.o
 .debug_aranges
                0x0000000000000000       0x50 ./StdPeriphDriver/CH58x_uart2.o
 .debug_ranges  0x0000000000000000       0x40 ./StdPeriphDriver/CH58x_uart2.o
 .debug_line    0x0000000000000000      0x547 ./StdPeriphDriver/CH58x_uart2.o
 .debug_str     0x0000000000000000      0x950 ./StdPeriphDriver/CH58x_uart2.o
 .comment       0x0000000000000000       0x34 ./StdPeriphDriver/CH58x_uart2.o
 .debug_frame   0x0000000000000000       0x9c ./StdPeriphDriver/CH58x_uart2.o
 .text          0x0000000000000000        0x0 ./StdPeriphDriver/CH58x_uart3.o
 .data          0x0000000000000000        0x0 ./StdPeriphDriver/CH58x_uart3.o
 .bss           0x0000000000000000        0x0 ./StdPeriphDriver/CH58x_uart3.o
 .text.UART3_Reset
                0x0000000000000000        0xe ./StdPeriphDriver/CH58x_uart3.o
 .text.UART3_RecvString
                0x0000000000000000       0x2a ./StdPeriphDriver/CH58x_uart3.o
 .text          0x0000000000000000        0x0 ./StdPeriphDriver/CH58x_usb2dev.o
 .data          0x0000000000000000        0x0 ./StdPeriphDriver/CH58x_usb2dev.o
 .bss           0x0000000000000000        0x0 ./StdPeriphDriver/CH58x_usb2dev.o
 .text.USB2_DeviceInit
                0x0000000000000000       0x8e ./StdPeriphDriver/CH58x_usb2dev.o
 .text.U2DevEP1_IN_Deal
                0x0000000000000000       0x16 ./StdPeriphDriver/CH58x_usb2dev.o
 .text.U2DevEP2_IN_Deal
                0x0000000000000000       0x16 ./StdPeriphDriver/CH58x_usb2dev.o
 .text.U2DevEP3_IN_Deal
                0x0000000000000000       0x16 ./StdPeriphDriver/CH58x_usb2dev.o
 .text.U2DevEP4_IN_Deal
                0x0000000000000000       0x16 ./StdPeriphDriver/CH58x_usb2dev.o
 .debug_info    0x0000000000000000      0xd5b ./StdPeriphDriver/CH58x_usb2dev.o
 .debug_abbrev  0x0000000000000000      0x217 ./StdPeriphDriver/CH58x_usb2dev.o
 .debug_aranges
                0x0000000000000000       0x40 ./StdPeriphDriver/CH58x_usb2dev.o
 .debug_ranges  0x0000000000000000       0x30 ./StdPeriphDriver/CH58x_usb2dev.o
 .debug_line    0x0000000000000000      0x4a8 ./StdPeriphDriver/CH58x_usb2dev.o
 .debug_str     0x0000000000000000      0x8b1 ./StdPeriphDriver/CH58x_usb2dev.o
 .comment       0x0000000000000000       0x34 ./StdPeriphDriver/CH58x_usb2dev.o
 .debug_frame   0x0000000000000000       0x60 ./StdPeriphDriver/CH58x_usb2dev.o
 COMMON         0x0000000000000000       0x10 ./StdPeriphDriver/CH58x_usb2dev.o
 .text          0x0000000000000000        0x0 ./StdPeriphDriver/CH58x_usb2hostBase.o
 .data          0x0000000000000000        0x0 ./StdPeriphDriver/CH58x_usb2hostBase.o
 .bss           0x0000000000000000        0x0 ./StdPeriphDriver/CH58x_usb2hostBase.o
 .text.SetUsb2Speed.part.1
                0x0000000000000000       0x1e ./StdPeriphDriver/CH58x_usb2hostBase.o
 .text.DisableRootU2HubPort
                0x0000000000000000        0xa ./StdPeriphDriver/CH58x_usb2hostBase.o
 .text.AnalyzeRootU2Hub
                0x0000000000000000       0x84 ./StdPeriphDriver/CH58x_usb2hostBase.o
 .text.SetHostUsb2Addr
                0x0000000000000000       0x18 ./StdPeriphDriver/CH58x_usb2hostBase.o
 .text.SetUsb2Speed
                0x0000000000000000       0x1c ./StdPeriphDriver/CH58x_usb2hostBase.o
 .text.ResetRootU2HubPort
                0x0000000000000000       0x72 ./StdPeriphDriver/CH58x_usb2hostBase.o
 .text.EnableRootU2HubPort
                0x0000000000000000       0x5e ./StdPeriphDriver/CH58x_usb2hostBase.o
 .text.SelectU2HubPort
                0x0000000000000000       0x88 ./StdPeriphDriver/CH58x_usb2hostBase.o
 .text.WaitUSB2_Interrupt
                0x0000000000000000       0x2c ./StdPeriphDriver/CH58x_usb2hostBase.o
 .text.USB2HostTransact
                0x0000000000000000      0x160 ./StdPeriphDriver/CH58x_usb2hostBase.o
 .text.U2HostCtrlTransfer
                0x0000000000000000      0x1f4 ./StdPeriphDriver/CH58x_usb2hostBase.o
 .text.CopyU2SetupReqPkg
                0x0000000000000000       0x24 ./StdPeriphDriver/CH58x_usb2hostBase.o
 .text.CtrlGetU2DeviceDescr
                0x0000000000000000       0x60 ./StdPeriphDriver/CH58x_usb2hostBase.o
 .text.CtrlGetU2ConfigDescr
                0x0000000000000000       0x88 ./StdPeriphDriver/CH58x_usb2hostBase.o
 .text.CtrlSetUsb2Address
                0x0000000000000000       0x5c ./StdPeriphDriver/CH58x_usb2hostBase.o
 .text.CtrlSetUsb2Config
                0x0000000000000000       0x3c ./StdPeriphDriver/CH58x_usb2hostBase.o
 .text.CtrlClearU2EndpStall
                0x0000000000000000       0x3c ./StdPeriphDriver/CH58x_usb2hostBase.o
 .text.CtrlSetUsb2Intercace
                0x0000000000000000       0x3c ./StdPeriphDriver/CH58x_usb2hostBase.o
 .text.USB2_HostInit
                0x0000000000000000       0x76 ./StdPeriphDriver/CH58x_usb2hostBase.o
 .rodata.AnalyzeRootU2Hub.str1.4
                0x0000000000000000       0x19 ./StdPeriphDriver/CH58x_usb2hostBase.o
 .sdata2.SetupClrU2EndpStall
                0x0000000000000000        0x8 ./StdPeriphDriver/CH58x_usb2hostBase.o
 .sdata2.SetupGetU2CfgDescr
                0x0000000000000000        0x8 ./StdPeriphDriver/CH58x_usb2hostBase.o
 .sdata2.SetupGetU2DevDescr
                0x0000000000000000        0x8 ./StdPeriphDriver/CH58x_usb2hostBase.o
 .sdata2.SetupSetUsb2Addr
                0x0000000000000000        0x8 ./StdPeriphDriver/CH58x_usb2hostBase.o
 .sdata2.SetupSetUsb2Config
                0x0000000000000000        0x8 ./StdPeriphDriver/CH58x_usb2hostBase.o
 .sdata2.SetupSetUsb2Interface
                0x0000000000000000        0x8 ./StdPeriphDriver/CH58x_usb2hostBase.o
 .debug_info    0x0000000000000000     0x16f7 ./StdPeriphDriver/CH58x_usb2hostBase.o
 .debug_abbrev  0x0000000000000000      0x477 ./StdPeriphDriver/CH58x_usb2hostBase.o
 .debug_loc     0x0000000000000000      0x686 ./StdPeriphDriver/CH58x_usb2hostBase.o
 .debug_aranges
                0x0000000000000000       0xb0 ./StdPeriphDriver/CH58x_usb2hostBase.o
 .debug_ranges  0x0000000000000000       0xc0 ./StdPeriphDriver/CH58x_usb2hostBase.o
 .debug_line    0x0000000000000000     0x1423 ./StdPeriphDriver/CH58x_usb2hostBase.o
 .debug_str     0x0000000000000000      0xbdb ./StdPeriphDriver/CH58x_usb2hostBase.o
 .comment       0x0000000000000000       0x34 ./StdPeriphDriver/CH58x_usb2hostBase.o
 .debug_frame   0x0000000000000000      0x264 ./StdPeriphDriver/CH58x_usb2hostBase.o
 COMMON         0x0000000000000000       0x4c ./StdPeriphDriver/CH58x_usb2hostBase.o
 .text          0x0000000000000000        0x0 ./StdPeriphDriver/CH58x_usb2hostClass.o
 .data          0x0000000000000000        0x0 ./StdPeriphDriver/CH58x_usb2hostClass.o
 .bss           0x0000000000000000        0x0 ./StdPeriphDriver/CH58x_usb2hostClass.o
 .text.AnalyzeU2HidIntEndp
                0x0000000000000000      0x10c ./StdPeriphDriver/CH58x_usb2hostClass.o
 .text.AnalyzeU2BulkEndp
                0x0000000000000000       0xc4 ./StdPeriphDriver/CH58x_usb2hostClass.o
 .text.U2SearchTypeDevice
                0x0000000000000000       0x7e ./StdPeriphDriver/CH58x_usb2hostClass.o
 .text.U2SETorOFFNumLock
                0x0000000000000000       0x8c ./StdPeriphDriver/CH58x_usb2hostClass.o
 .text.CtrlGetU2HIDDeviceReport
                0x0000000000000000       0x84 ./StdPeriphDriver/CH58x_usb2hostClass.o
 .text.CtrlGetU2HubDescr
                0x0000000000000000       0x42 ./StdPeriphDriver/CH58x_usb2hostClass.o
 .text.U2HubGetPortStatus
                0x0000000000000000       0x5c ./StdPeriphDriver/CH58x_usb2hostClass.o
 .text.U2HubSetPortFeature
                0x0000000000000000       0x3c ./StdPeriphDriver/CH58x_usb2hostClass.o
 .text.InitRootU2Device
                0x0000000000000000      0x3d0 ./StdPeriphDriver/CH58x_usb2hostClass.o
 .text.U2HubClearPortFeature
                0x0000000000000000       0x3c ./StdPeriphDriver/CH58x_usb2hostClass.o
 .text.InitU2DevOnHub
                0x0000000000000000      0x39e ./StdPeriphDriver/CH58x_usb2hostClass.o
 .text.EnumU2HubPort
                0x0000000000000000      0x212 ./StdPeriphDriver/CH58x_usb2hostClass.o
 .text.EnumAllU2HubPort
                0x0000000000000000       0x5c ./StdPeriphDriver/CH58x_usb2hostClass.o
 .rodata.AnalyzeU2HidIntEndp.str1.4
                0x0000000000000000        0x6 ./StdPeriphDriver/CH58x_usb2hostClass.o
 .rodata.EnumAllU2HubPort.str1.4
                0x0000000000000000       0x1b ./StdPeriphDriver/CH58x_usb2hostClass.o
 .rodata.EnumU2HubPort.str1.4
                0x0000000000000000       0x9c ./StdPeriphDriver/CH58x_usb2hostClass.o
 .rodata.InitRootU2Device.str1.4
                0x0000000000000000      0x13c ./StdPeriphDriver/CH58x_usb2hostClass.o
 .rodata.InitU2DevOnHub.str1.4
                0x0000000000000000       0xc9 ./StdPeriphDriver/CH58x_usb2hostClass.o
 .sdata2.SetupGetU2HIDDevReport
                0x0000000000000000        0x8 ./StdPeriphDriver/CH58x_usb2hostClass.o
 .sdata2.SetupGetU2HubDescr
                0x0000000000000000        0x8 ./StdPeriphDriver/CH58x_usb2hostClass.o
 .sdata2.SetupSetU2HIDIdle
                0x0000000000000000        0x8 ./StdPeriphDriver/CH58x_usb2hostClass.o
 .debug_info    0x0000000000000000     0x1d73 ./StdPeriphDriver/CH58x_usb2hostClass.o
 .debug_abbrev  0x0000000000000000      0x366 ./StdPeriphDriver/CH58x_usb2hostClass.o
 .debug_loc     0x0000000000000000      0x99b ./StdPeriphDriver/CH58x_usb2hostClass.o
 .debug_aranges
                0x0000000000000000       0x80 ./StdPeriphDriver/CH58x_usb2hostClass.o
 .debug_ranges  0x0000000000000000       0x70 ./StdPeriphDriver/CH58x_usb2hostClass.o
 .debug_line    0x0000000000000000     0x1bc9 ./StdPeriphDriver/CH58x_usb2hostClass.o
 .debug_str     0x0000000000000000      0xe63 ./StdPeriphDriver/CH58x_usb2hostClass.o
 .comment       0x0000000000000000       0x34 ./StdPeriphDriver/CH58x_usb2hostClass.o
 .debug_frame   0x0000000000000000      0x1f8 ./StdPeriphDriver/CH58x_usb2hostClass.o
 COMMON         0x0000000000000000       0x80 ./StdPeriphDriver/CH58x_usb2hostClass.o
 .text          0x0000000000000000        0x0 ./Startup/startup_CH583.o
 .data          0x0000000000000000        0x0 ./Startup/startup_CH583.o
 .bss           0x0000000000000000        0x0 ./Startup/startup_CH583.o
 .text          0x0000000000000000        0x0 ./RVMSIS/core_riscv.o
 .data          0x0000000000000000        0x0 ./RVMSIS/core_riscv.o
 .bss           0x0000000000000000        0x0 ./RVMSIS/core_riscv.o
 .text.__get_FFLAGS
                0x0000000000000000        0x6 ./RVMSIS/core_riscv.o
 .text.__set_FFLAGS
                0x0000000000000000        0x6 ./RVMSIS/core_riscv.o
 .text.__get_FRM
                0x0000000000000000        0x6 ./RVMSIS/core_riscv.o
 .text.__set_FRM
                0x0000000000000000        0x6 ./RVMSIS/core_riscv.o
 .text.__get_FCSR
                0x0000000000000000        0x6 ./RVMSIS/core_riscv.o
 .text.__set_FCSR
                0x0000000000000000        0x6 ./RVMSIS/core_riscv.o
 .text.__get_MSTATUS
                0x0000000000000000        0x6 ./RVMSIS/core_riscv.o
 .text.__set_MSTATUS
                0x0000000000000000        0x6 ./RVMSIS/core_riscv.o
 .text.__get_MISA
                0x0000000000000000        0x6 ./RVMSIS/core_riscv.o
 .text.__set_MISA
                0x0000000000000000        0x6 ./RVMSIS/core_riscv.o
 .text.__get_MIE
                0x0000000000000000        0x6 ./RVMSIS/core_riscv.o
 .text.__set_MIE
                0x0000000000000000        0x6 ./RVMSIS/core_riscv.o
 .text.__get_MTVEC
                0x0000000000000000        0x6 ./RVMSIS/core_riscv.o
 .text.__set_MTVEC
                0x0000000000000000        0x6 ./RVMSIS/core_riscv.o
 .text.__get_MSCRATCH
                0x0000000000000000        0x6 ./RVMSIS/core_riscv.o
 .text.__set_MSCRATCH
                0x0000000000000000        0x6 ./RVMSIS/core_riscv.o
 .text.__get_MEPC
                0x0000000000000000        0x6 ./RVMSIS/core_riscv.o
 .text.__set_MEPC
                0x0000000000000000        0x6 ./RVMSIS/core_riscv.o
 .text.__get_MCAUSE
                0x0000000000000000        0x6 ./RVMSIS/core_riscv.o
 .text.__set_MCAUSE
                0x0000000000000000        0x6 ./RVMSIS/core_riscv.o
 .text.__get_MTVAL
                0x0000000000000000        0x6 ./RVMSIS/core_riscv.o
 .text.__set_MTVAL
                0x0000000000000000        0x6 ./RVMSIS/core_riscv.o
 .text.__get_MIP
                0x0000000000000000        0x6 ./RVMSIS/core_riscv.o
 .text.__set_MIP
                0x0000000000000000        0x6 ./RVMSIS/core_riscv.o
 .text.__get_MCYCLE
                0x0000000000000000        0x6 ./RVMSIS/core_riscv.o
 .text.__set_MCYCLE
                0x0000000000000000        0x6 ./RVMSIS/core_riscv.o
 .text.__get_MCYCLEH
                0x0000000000000000        0x6 ./RVMSIS/core_riscv.o
 .text.__set_MCYCLEH
                0x0000000000000000        0x6 ./RVMSIS/core_riscv.o
 .text.__get_MINSTRET
                0x0000000000000000        0x6 ./RVMSIS/core_riscv.o
 .text.__set_MINSTRET
                0x0000000000000000        0x6 ./RVMSIS/core_riscv.o
 .text.__get_MINSTRETH
                0x0000000000000000        0x6 ./RVMSIS/core_riscv.o
 .text.__set_MINSTRETH
                0x0000000000000000        0x6 ./RVMSIS/core_riscv.o
 .text.__get_MVENDORID
                0x0000000000000000        0x6 ./RVMSIS/core_riscv.o
 .text.__get_MARCHID
                0x0000000000000000        0x6 ./RVMSIS/core_riscv.o
 .text.__get_MIMPID
                0x0000000000000000        0x6 ./RVMSIS/core_riscv.o
 .text.__get_MHARTID
                0x0000000000000000        0x6 ./RVMSIS/core_riscv.o
 .debug_info    0x0000000000000000      0x624 ./RVMSIS/core_riscv.o
 .debug_abbrev  0x0000000000000000      0x10d ./RVMSIS/core_riscv.o
 .debug_aranges
                0x0000000000000000      0x138 ./RVMSIS/core_riscv.o
 .debug_ranges  0x0000000000000000      0x128 ./RVMSIS/core_riscv.o
 .debug_line    0x0000000000000000      0x70b ./RVMSIS/core_riscv.o
 .debug_str     0x0000000000000000      0x35d ./RVMSIS/core_riscv.o
 .comment       0x0000000000000000       0x34 ./RVMSIS/core_riscv.o
 .debug_frame   0x0000000000000000      0x250 ./RVMSIS/core_riscv.o
 .text          0x0000000000000000        0x0 ../StdPeriphDriver\libISP583.a(ISP583.o)
 .data          0x0000000000000000        0x0 ../StdPeriphDriver\libISP583.a(ISP583.o)
 .bss           0x0000000000000000        0x0 ../StdPeriphDriver\libISP583.a(ISP583.o)
 .text          0x0000000000000000        0x0 c:/mounriver/mounriver_studio/toolchain/risc-v embedded gcc/bin/../lib/gcc/riscv-none-embed/8.2.0/rv32imac/ilp32\libgcc.a(_udivdi3.o)
 .data          0x0000000000000000        0x0 c:/mounriver/mounriver_studio/toolchain/risc-v embedded gcc/bin/../lib/gcc/riscv-none-embed/8.2.0/rv32imac/ilp32\libgcc.a(_udivdi3.o)
 .bss           0x0000000000000000        0x0 c:/mounriver/mounriver_studio/toolchain/risc-v embedded gcc/bin/../lib/gcc/riscv-none-embed/8.2.0/rv32imac/ilp32\libgcc.a(_udivdi3.o)
 .eh_frame      0x0000000000000000       0x28 c:/mounriver/mounriver_studio/toolchain/risc-v embedded gcc/bin/../lib/gcc/riscv-none-embed/8.2.0/rv32imac/ilp32\libgcc.a(_udivdi3.o)
 .text          0x0000000000000000        0x0 c:/mounriver/mounriver_studio/toolchain/risc-v embedded gcc/bin/../lib/gcc/riscv-none-embed/8.2.0/rv32imac/ilp32\libgcc.a(adddf3.o)
 .data          0x0000000000000000        0x0 c:/mounriver/mounriver_studio/toolchain/risc-v embedded gcc/bin/../lib/gcc/riscv-none-embed/8.2.0/rv32imac/ilp32\libgcc.a(adddf3.o)
 .bss           0x0000000000000000        0x0 c:/mounriver/mounriver_studio/toolchain/risc-v embedded gcc/bin/../lib/gcc/riscv-none-embed/8.2.0/rv32imac/ilp32\libgcc.a(adddf3.o)
 .text          0x0000000000000000        0x0 c:/mounriver/mounriver_studio/toolchain/risc-v embedded gcc/bin/../lib/gcc/riscv-none-embed/8.2.0/rv32imac/ilp32\libgcc.a(divdf3.o)
 .data          0x0000000000000000        0x0 c:/mounriver/mounriver_studio/toolchain/risc-v embedded gcc/bin/../lib/gcc/riscv-none-embed/8.2.0/rv32imac/ilp32\libgcc.a(divdf3.o)
 .bss           0x0000000000000000        0x0 c:/mounriver/mounriver_studio/toolchain/risc-v embedded gcc/bin/../lib/gcc/riscv-none-embed/8.2.0/rv32imac/ilp32\libgcc.a(divdf3.o)
 .text          0x0000000000000000        0x0 c:/mounriver/mounriver_studio/toolchain/risc-v embedded gcc/bin/../lib/gcc/riscv-none-embed/8.2.0/rv32imac/ilp32\libgcc.a(muldf3.o)
 .data          0x0000000000000000        0x0 c:/mounriver/mounriver_studio/toolchain/risc-v embedded gcc/bin/../lib/gcc/riscv-none-embed/8.2.0/rv32imac/ilp32\libgcc.a(muldf3.o)
 .bss           0x0000000000000000        0x0 c:/mounriver/mounriver_studio/toolchain/risc-v embedded gcc/bin/../lib/gcc/riscv-none-embed/8.2.0/rv32imac/ilp32\libgcc.a(muldf3.o)
 .text          0x0000000000000000        0x0 c:/mounriver/mounriver_studio/toolchain/risc-v embedded gcc/bin/../lib/gcc/riscv-none-embed/8.2.0/rv32imac/ilp32\libgcc.a(subdf3.o)
 .data          0x0000000000000000        0x0 c:/mounriver/mounriver_studio/toolchain/risc-v embedded gcc/bin/../lib/gcc/riscv-none-embed/8.2.0/rv32imac/ilp32\libgcc.a(subdf3.o)
 .bss           0x0000000000000000        0x0 c:/mounriver/mounriver_studio/toolchain/risc-v embedded gcc/bin/../lib/gcc/riscv-none-embed/8.2.0/rv32imac/ilp32\libgcc.a(subdf3.o)
 .text          0x0000000000000000        0x0 c:/mounriver/mounriver_studio/toolchain/risc-v embedded gcc/bin/../lib/gcc/riscv-none-embed/8.2.0/rv32imac/ilp32\libgcc.a(floatsidf.o)
 .data          0x0000000000000000        0x0 c:/mounriver/mounriver_studio/toolchain/risc-v embedded gcc/bin/../lib/gcc/riscv-none-embed/8.2.0/rv32imac/ilp32\libgcc.a(floatsidf.o)
 .bss           0x0000000000000000        0x0 c:/mounriver/mounriver_studio/toolchain/risc-v embedded gcc/bin/../lib/gcc/riscv-none-embed/8.2.0/rv32imac/ilp32\libgcc.a(floatsidf.o)
 .text          0x0000000000000000        0x0 c:/mounriver/mounriver_studio/toolchain/risc-v embedded gcc/bin/../lib/gcc/riscv-none-embed/8.2.0/rv32imac/ilp32\libgcc.a(addsf3.o)
 .data          0x0000000000000000        0x0 c:/mounriver/mounriver_studio/toolchain/risc-v embedded gcc/bin/../lib/gcc/riscv-none-embed/8.2.0/rv32imac/ilp32\libgcc.a(addsf3.o)
 .bss           0x0000000000000000        0x0 c:/mounriver/mounriver_studio/toolchain/risc-v embedded gcc/bin/../lib/gcc/riscv-none-embed/8.2.0/rv32imac/ilp32\libgcc.a(addsf3.o)
 .text          0x0000000000000000        0x0 c:/mounriver/mounriver_studio/toolchain/risc-v embedded gcc/bin/../lib/gcc/riscv-none-embed/8.2.0/rv32imac/ilp32\libgcc.a(divsf3.o)
 .data          0x0000000000000000        0x0 c:/mounriver/mounriver_studio/toolchain/risc-v embedded gcc/bin/../lib/gcc/riscv-none-embed/8.2.0/rv32imac/ilp32\libgcc.a(divsf3.o)
 .bss           0x0000000000000000        0x0 c:/mounriver/mounriver_studio/toolchain/risc-v embedded gcc/bin/../lib/gcc/riscv-none-embed/8.2.0/rv32imac/ilp32\libgcc.a(divsf3.o)
 .text          0x0000000000000000        0x0 c:/mounriver/mounriver_studio/toolchain/risc-v embedded gcc/bin/../lib/gcc/riscv-none-embed/8.2.0/rv32imac/ilp32\libgcc.a(gesf2.o)
 .data          0x0000000000000000        0x0 c:/mounriver/mounriver_studio/toolchain/risc-v embedded gcc/bin/../lib/gcc/riscv-none-embed/8.2.0/rv32imac/ilp32\libgcc.a(gesf2.o)
 .bss           0x0000000000000000        0x0 c:/mounriver/mounriver_studio/toolchain/risc-v embedded gcc/bin/../lib/gcc/riscv-none-embed/8.2.0/rv32imac/ilp32\libgcc.a(gesf2.o)
 .text          0x0000000000000000        0x0 c:/mounriver/mounriver_studio/toolchain/risc-v embedded gcc/bin/../lib/gcc/riscv-none-embed/8.2.0/rv32imac/ilp32\libgcc.a(lesf2.o)
 .data          0x0000000000000000        0x0 c:/mounriver/mounriver_studio/toolchain/risc-v embedded gcc/bin/../lib/gcc/riscv-none-embed/8.2.0/rv32imac/ilp32\libgcc.a(lesf2.o)
 .bss           0x0000000000000000        0x0 c:/mounriver/mounriver_studio/toolchain/risc-v embedded gcc/bin/../lib/gcc/riscv-none-embed/8.2.0/rv32imac/ilp32\libgcc.a(lesf2.o)
 .text          0x0000000000000000        0x0 c:/mounriver/mounriver_studio/toolchain/risc-v embedded gcc/bin/../lib/gcc/riscv-none-embed/8.2.0/rv32imac/ilp32\libgcc.a(mulsf3.o)
 .data          0x0000000000000000        0x0 c:/mounriver/mounriver_studio/toolchain/risc-v embedded gcc/bin/../lib/gcc/riscv-none-embed/8.2.0/rv32imac/ilp32\libgcc.a(mulsf3.o)
 .bss           0x0000000000000000        0x0 c:/mounriver/mounriver_studio/toolchain/risc-v embedded gcc/bin/../lib/gcc/riscv-none-embed/8.2.0/rv32imac/ilp32\libgcc.a(mulsf3.o)
 .text          0x0000000000000000        0x0 c:/mounriver/mounriver_studio/toolchain/risc-v embedded gcc/bin/../lib/gcc/riscv-none-embed/8.2.0/rv32imac/ilp32\libgcc.a(subsf3.o)
 .data          0x0000000000000000        0x0 c:/mounriver/mounriver_studio/toolchain/risc-v embedded gcc/bin/../lib/gcc/riscv-none-embed/8.2.0/rv32imac/ilp32\libgcc.a(subsf3.o)
 .bss           0x0000000000000000        0x0 c:/mounriver/mounriver_studio/toolchain/risc-v embedded gcc/bin/../lib/gcc/riscv-none-embed/8.2.0/rv32imac/ilp32\libgcc.a(subsf3.o)
 .text          0x0000000000000000        0x0 c:/mounriver/mounriver_studio/toolchain/risc-v embedded gcc/bin/../lib/gcc/riscv-none-embed/8.2.0/rv32imac/ilp32\libgcc.a(fixunssfsi.o)
 .data          0x0000000000000000        0x0 c:/mounriver/mounriver_studio/toolchain/risc-v embedded gcc/bin/../lib/gcc/riscv-none-embed/8.2.0/rv32imac/ilp32\libgcc.a(fixunssfsi.o)
 .bss           0x0000000000000000        0x0 c:/mounriver/mounriver_studio/toolchain/risc-v embedded gcc/bin/../lib/gcc/riscv-none-embed/8.2.0/rv32imac/ilp32\libgcc.a(fixunssfsi.o)
 .text          0x0000000000000000        0x0 c:/mounriver/mounriver_studio/toolchain/risc-v embedded gcc/bin/../lib/gcc/riscv-none-embed/8.2.0/rv32imac/ilp32\libgcc.a(floatsisf.o)
 .data          0x0000000000000000        0x0 c:/mounriver/mounriver_studio/toolchain/risc-v embedded gcc/bin/../lib/gcc/riscv-none-embed/8.2.0/rv32imac/ilp32\libgcc.a(floatsisf.o)
 .bss           0x0000000000000000        0x0 c:/mounriver/mounriver_studio/toolchain/risc-v embedded gcc/bin/../lib/gcc/riscv-none-embed/8.2.0/rv32imac/ilp32\libgcc.a(floatsisf.o)
 .text          0x0000000000000000        0x0 c:/mounriver/mounriver_studio/toolchain/risc-v embedded gcc/bin/../lib/gcc/riscv-none-embed/8.2.0/rv32imac/ilp32\libgcc.a(extendsfdf2.o)
 .data          0x0000000000000000        0x0 c:/mounriver/mounriver_studio/toolchain/risc-v embedded gcc/bin/../lib/gcc/riscv-none-embed/8.2.0/rv32imac/ilp32\libgcc.a(extendsfdf2.o)
 .bss           0x0000000000000000        0x0 c:/mounriver/mounriver_studio/toolchain/risc-v embedded gcc/bin/../lib/gcc/riscv-none-embed/8.2.0/rv32imac/ilp32\libgcc.a(extendsfdf2.o)
 .text          0x0000000000000000        0x0 c:/mounriver/mounriver_studio/toolchain/risc-v embedded gcc/bin/../lib/gcc/riscv-none-embed/8.2.0/rv32imac/ilp32\libgcc.a(truncdfsf2.o)
 .data          0x0000000000000000        0x0 c:/mounriver/mounriver_studio/toolchain/risc-v embedded gcc/bin/../lib/gcc/riscv-none-embed/8.2.0/rv32imac/ilp32\libgcc.a(truncdfsf2.o)
 .bss           0x0000000000000000        0x0 c:/mounriver/mounriver_studio/toolchain/risc-v embedded gcc/bin/../lib/gcc/riscv-none-embed/8.2.0/rv32imac/ilp32\libgcc.a(truncdfsf2.o)
 .text          0x0000000000000000        0x0 c:/mounriver/mounriver_studio/toolchain/risc-v embedded gcc/bin/../lib/gcc/riscv-none-embed/8.2.0/rv32imac/ilp32\libgcc.a(_clz.o)
 .data          0x0000000000000000        0x0 c:/mounriver/mounriver_studio/toolchain/risc-v embedded gcc/bin/../lib/gcc/riscv-none-embed/8.2.0/rv32imac/ilp32\libgcc.a(_clz.o)
 .bss           0x0000000000000000        0x0 c:/mounriver/mounriver_studio/toolchain/risc-v embedded gcc/bin/../lib/gcc/riscv-none-embed/8.2.0/rv32imac/ilp32\libgcc.a(_clz.o)
 .text          0x0000000000000000        0x0 c:/mounriver/mounriver_studio/toolchain/risc-v embedded gcc/bin/../lib/gcc/riscv-none-embed/8.2.0/rv32imac/ilp32\libgcc.a(_clzsi2.o)
 .data          0x0000000000000000        0x0 c:/mounriver/mounriver_studio/toolchain/risc-v embedded gcc/bin/../lib/gcc/riscv-none-embed/8.2.0/rv32imac/ilp32\libgcc.a(_clzsi2.o)
 .bss           0x0000000000000000        0x0 c:/mounriver/mounriver_studio/toolchain/risc-v embedded gcc/bin/../lib/gcc/riscv-none-embed/8.2.0/rv32imac/ilp32\libgcc.a(_clzsi2.o)
 .text          0x0000000000000000        0x0 c:/mounriver/mounriver_studio/toolchain/risc-v embedded gcc/bin/../lib/gcc/riscv-none-embed/8.2.0/../../../../riscv-none-embed/lib/rv32imac/ilp32\libg_nano.a(lib_a-locale.o)
 .data          0x0000000000000000        0x0 c:/mounriver/mounriver_studio/toolchain/risc-v embedded gcc/bin/../lib/gcc/riscv-none-embed/8.2.0/../../../../riscv-none-embed/lib/rv32imac/ilp32\libg_nano.a(lib_a-locale.o)
 .bss           0x0000000000000000        0x0 c:/mounriver/mounriver_studio/toolchain/risc-v embedded gcc/bin/../lib/gcc/riscv-none-embed/8.2.0/../../../../riscv-none-embed/lib/rv32imac/ilp32\libg_nano.a(lib_a-locale.o)
 .text._setlocale_r
                0x0000000000000000       0x64 c:/mounriver/mounriver_studio/toolchain/risc-v embedded gcc/bin/../lib/gcc/riscv-none-embed/8.2.0/../../../../riscv-none-embed/lib/rv32imac/ilp32\libg_nano.a(lib_a-locale.o)
 .text.__locale_mb_cur_max
                0x0000000000000000       0x1c c:/mounriver/mounriver_studio/toolchain/risc-v embedded gcc/bin/../lib/gcc/riscv-none-embed/8.2.0/../../../../riscv-none-embed/lib/rv32imac/ilp32\libg_nano.a(lib_a-locale.o)
 .text.__locale_ctype_ptr_l
                0x0000000000000000        0x6 c:/mounriver/mounriver_studio/toolchain/risc-v embedded gcc/bin/../lib/gcc/riscv-none-embed/8.2.0/../../../../riscv-none-embed/lib/rv32imac/ilp32\libg_nano.a(lib_a-locale.o)
 .text.__locale_ctype_ptr
                0x0000000000000000       0x1c c:/mounriver/mounriver_studio/toolchain/risc-v embedded gcc/bin/../lib/gcc/riscv-none-embed/8.2.0/../../../../riscv-none-embed/lib/rv32imac/ilp32\libg_nano.a(lib_a-locale.o)
 .text.setlocale
                0x0000000000000000       0x16 c:/mounriver/mounriver_studio/toolchain/risc-v embedded gcc/bin/../lib/gcc/riscv-none-embed/8.2.0/../../../../riscv-none-embed/lib/rv32imac/ilp32\libg_nano.a(lib_a-locale.o)
 .sbss._PathLocale
                0x0000000000000000        0x4 c:/mounriver/mounriver_studio/toolchain/risc-v embedded gcc/bin/../lib/gcc/riscv-none-embed/8.2.0/../../../../riscv-none-embed/lib/rv32imac/ilp32\libg_nano.a(lib_a-locale.o)
 .text          0x0000000000000000        0x0 c:/mounriver/mounriver_studio/toolchain/risc-v embedded gcc/bin/../lib/gcc/riscv-none-embed/8.2.0/../../../../riscv-none-embed/lib/rv32imac/ilp32\libg_nano.a(lib_a-malloc.o)
 .data          0x0000000000000000        0x0 c:/mounriver/mounriver_studio/toolchain/risc-v embedded gcc/bin/../lib/gcc/riscv-none-embed/8.2.0/../../../../riscv-none-embed/lib/rv32imac/ilp32\libg_nano.a(lib_a-malloc.o)
 .bss           0x0000000000000000        0x0 c:/mounriver/mounriver_studio/toolchain/risc-v embedded gcc/bin/../lib/gcc/riscv-none-embed/8.2.0/../../../../riscv-none-embed/lib/rv32imac/ilp32\libg_nano.a(lib_a-malloc.o)
 .text.free     0x0000000000000000       0x14 c:/mounriver/mounriver_studio/toolchain/risc-v embedded gcc/bin/../lib/gcc/riscv-none-embed/8.2.0/../../../../riscv-none-embed/lib/rv32imac/ilp32\libg_nano.a(lib_a-malloc.o)
 .text          0x0000000000000000        0x0 c:/mounriver/mounriver_studio/toolchain/risc-v embedded gcc/bin/../lib/gcc/riscv-none-embed/8.2.0/../../../../riscv-none-embed/lib/rv32imac/ilp32\libg_nano.a(lib_a-mbtowc_r.o)
 .data          0x0000000000000000        0x0 c:/mounriver/mounriver_studio/toolchain/risc-v embedded gcc/bin/../lib/gcc/riscv-none-embed/8.2.0/../../../../riscv-none-embed/lib/rv32imac/ilp32\libg_nano.a(lib_a-mbtowc_r.o)
 .bss           0x0000000000000000        0x0 c:/mounriver/mounriver_studio/toolchain/risc-v embedded gcc/bin/../lib/gcc/riscv-none-embed/8.2.0/../../../../riscv-none-embed/lib/rv32imac/ilp32\libg_nano.a(lib_a-mbtowc_r.o)
 .text._mbtowc_r
                0x0000000000000000       0x1c c:/mounriver/mounriver_studio/toolchain/risc-v embedded gcc/bin/../lib/gcc/riscv-none-embed/8.2.0/../../../../riscv-none-embed/lib/rv32imac/ilp32\libg_nano.a(lib_a-mbtowc_r.o)
 .text          0x0000000000000000        0x0 c:/mounriver/mounriver_studio/toolchain/risc-v embedded gcc/bin/../lib/gcc/riscv-none-embed/8.2.0/../../../../riscv-none-embed/lib/rv32imac/ilp32\libg_nano.a(lib_a-memcmp.o)
 .data          0x0000000000000000        0x0 c:/mounriver/mounriver_studio/toolchain/risc-v embedded gcc/bin/../lib/gcc/riscv-none-embed/8.2.0/../../../../riscv-none-embed/lib/rv32imac/ilp32\libg_nano.a(lib_a-memcmp.o)
 .bss           0x0000000000000000        0x0 c:/mounriver/mounriver_studio/toolchain/risc-v embedded gcc/bin/../lib/gcc/riscv-none-embed/8.2.0/../../../../riscv-none-embed/lib/rv32imac/ilp32\libg_nano.a(lib_a-memcmp.o)
 .text          0x0000000000000000        0x0 c:/mounriver/mounriver_studio/toolchain/risc-v embedded gcc/bin/../lib/gcc/riscv-none-embed/8.2.0/../../../../riscv-none-embed/lib/rv32imac/ilp32\libg_nano.a(lib_a-memcpy.o)
 .data          0x0000000000000000        0x0 c:/mounriver/mounriver_studio/toolchain/risc-v embedded gcc/bin/../lib/gcc/riscv-none-embed/8.2.0/../../../../riscv-none-embed/lib/rv32imac/ilp32\libg_nano.a(lib_a-memcpy.o)
 .bss           0x0000000000000000        0x0 c:/mounriver/mounriver_studio/toolchain/risc-v embedded gcc/bin/../lib/gcc/riscv-none-embed/8.2.0/../../../../riscv-none-embed/lib/rv32imac/ilp32\libg_nano.a(lib_a-memcpy.o)
 .data          0x0000000000000000        0x0 c:/mounriver/mounriver_studio/toolchain/risc-v embedded gcc/bin/../lib/gcc/riscv-none-embed/8.2.0/../../../../riscv-none-embed/lib/rv32imac/ilp32\libg_nano.a(lib_a-memset.o)
 .bss           0x0000000000000000        0x0 c:/mounriver/mounriver_studio/toolchain/risc-v embedded gcc/bin/../lib/gcc/riscv-none-embed/8.2.0/../../../../riscv-none-embed/lib/rv32imac/ilp32\libg_nano.a(lib_a-memset.o)
 .text          0x0000000000000000        0x0 c:/mounriver/mounriver_studio/toolchain/risc-v embedded gcc/bin/../lib/gcc/riscv-none-embed/8.2.0/../../../../riscv-none-embed/lib/rv32imac/ilp32\libg_nano.a(lib_a-nano-freer.o)
 .data          0x0000000000000000        0x0 c:/mounriver/mounriver_studio/toolchain/risc-v embedded gcc/bin/../lib/gcc/riscv-none-embed/8.2.0/../../../../riscv-none-embed/lib/rv32imac/ilp32\libg_nano.a(lib_a-nano-freer.o)
 .bss           0x0000000000000000        0x0 c:/mounriver/mounriver_studio/toolchain/risc-v embedded gcc/bin/../lib/gcc/riscv-none-embed/8.2.0/../../../../riscv-none-embed/lib/rv32imac/ilp32\libg_nano.a(lib_a-nano-freer.o)
 .text          0x0000000000000000        0x0 c:/mounriver/mounriver_studio/toolchain/risc-v embedded gcc/bin/../lib/gcc/riscv-none-embed/8.2.0/../../../../riscv-none-embed/lib/rv32imac/ilp32\libg_nano.a(lib_a-nano-mallocr.o)
 .data          0x0000000000000000        0x0 c:/mounriver/mounriver_studio/toolchain/risc-v embedded gcc/bin/../lib/gcc/riscv-none-embed/8.2.0/../../../../riscv-none-embed/lib/rv32imac/ilp32\libg_nano.a(lib_a-nano-mallocr.o)
 .bss           0x0000000000000000        0x0 c:/mounriver/mounriver_studio/toolchain/risc-v embedded gcc/bin/../lib/gcc/riscv-none-embed/8.2.0/../../../../riscv-none-embed/lib/rv32imac/ilp32\libg_nano.a(lib_a-nano-mallocr.o)
 .text          0x0000000000000000        0x0 c:/mounriver/mounriver_studio/toolchain/risc-v embedded gcc/bin/../lib/gcc/riscv-none-embed/8.2.0/../../../../riscv-none-embed/lib/rv32imac/ilp32\libg_nano.a(lib_a-nano-vfprintf_float.o)
 .data          0x0000000000000000        0x0 c:/mounriver/mounriver_studio/toolchain/risc-v embedded gcc/bin/../lib/gcc/riscv-none-embed/8.2.0/../../../../riscv-none-embed/lib/rv32imac/ilp32\libg_nano.a(lib_a-nano-vfprintf_float.o)
 .bss           0x0000000000000000        0x0 c:/mounriver/mounriver_studio/toolchain/risc-v embedded gcc/bin/../lib/gcc/riscv-none-embed/8.2.0/../../../../riscv-none-embed/lib/rv32imac/ilp32\libg_nano.a(lib_a-nano-vfprintf_float.o)
 .text          0x0000000000000000        0x0 c:/mounriver/mounriver_studio/toolchain/risc-v embedded gcc/bin/../lib/gcc/riscv-none-embed/8.2.0/../../../../riscv-none-embed/lib/rv32imac/ilp32\libg_nano.a(lib_a-nano-vfprintf_i.o)
 .data          0x0000000000000000        0x0 c:/mounriver/mounriver_studio/toolchain/risc-v embedded gcc/bin/../lib/gcc/riscv-none-embed/8.2.0/../../../../riscv-none-embed/lib/rv32imac/ilp32\libg_nano.a(lib_a-nano-vfprintf_i.o)
 .bss           0x0000000000000000        0x0 c:/mounriver/mounriver_studio/toolchain/risc-v embedded gcc/bin/../lib/gcc/riscv-none-embed/8.2.0/../../../../riscv-none-embed/lib/rv32imac/ilp32\libg_nano.a(lib_a-nano-vfprintf_i.o)
 .text          0x0000000000000000        0x0 c:/mounriver/mounriver_studio/toolchain/risc-v embedded gcc/bin/../lib/gcc/riscv-none-embed/8.2.0/../../../../riscv-none-embed/lib/rv32imac/ilp32\libg_nano.a(lib_a-printf.o)
 .data          0x0000000000000000        0x0 c:/mounriver/mounriver_studio/toolchain/risc-v embedded gcc/bin/../lib/gcc/riscv-none-embed/8.2.0/../../../../riscv-none-embed/lib/rv32imac/ilp32\libg_nano.a(lib_a-printf.o)
 .bss           0x0000000000000000        0x0 c:/mounriver/mounriver_studio/toolchain/risc-v embedded gcc/bin/../lib/gcc/riscv-none-embed/8.2.0/../../../../riscv-none-embed/lib/rv32imac/ilp32\libg_nano.a(lib_a-printf.o)
 .text._printf_r
                0x0000000000000000       0x40 c:/mounriver/mounriver_studio/toolchain/risc-v embedded gcc/bin/../lib/gcc/riscv-none-embed/8.2.0/../../../../riscv-none-embed/lib/rv32imac/ilp32\libg_nano.a(lib_a-printf.o)
 .text          0x0000000000000000        0x0 c:/mounriver/mounriver_studio/toolchain/risc-v embedded gcc/bin/../lib/gcc/riscv-none-embed/8.2.0/../../../../riscv-none-embed/lib/rv32imac/ilp32\libg_nano.a(lib_a-putchar.o)
 .data          0x0000000000000000        0x0 c:/mounriver/mounriver_studio/toolchain/risc-v embedded gcc/bin/../lib/gcc/riscv-none-embed/8.2.0/../../../../riscv-none-embed/lib/rv32imac/ilp32\libg_nano.a(lib_a-putchar.o)
 .bss           0x0000000000000000        0x0 c:/mounriver/mounriver_studio/toolchain/risc-v embedded gcc/bin/../lib/gcc/riscv-none-embed/8.2.0/../../../../riscv-none-embed/lib/rv32imac/ilp32\libg_nano.a(lib_a-putchar.o)
 .text._putchar_r
                0x0000000000000000       0x2c c:/mounriver/mounriver_studio/toolchain/risc-v embedded gcc/bin/../lib/gcc/riscv-none-embed/8.2.0/../../../../riscv-none-embed/lib/rv32imac/ilp32\libg_nano.a(lib_a-putchar.o)
 .text.putchar  0x0000000000000000       0x38 c:/mounriver/mounriver_studio/toolchain/risc-v embedded gcc/bin/../lib/gcc/riscv-none-embed/8.2.0/../../../../riscv-none-embed/lib/rv32imac/ilp32\libg_nano.a(lib_a-putchar.o)
 .debug_frame   0x0000000000000000       0x50 c:/mounriver/mounriver_studio/toolchain/risc-v embedded gcc/bin/../lib/gcc/riscv-none-embed/8.2.0/../../../../riscv-none-embed/lib/rv32imac/ilp32\libg_nano.a(lib_a-putchar.o)
 .text          0x0000000000000000        0x0 c:/mounriver/mounriver_studio/toolchain/risc-v embedded gcc/bin/../lib/gcc/riscv-none-embed/8.2.0/../../../../riscv-none-embed/lib/rv32imac/ilp32\libg_nano.a(lib_a-puts.o)
 .data          0x0000000000000000        0x0 c:/mounriver/mounriver_studio/toolchain/risc-v embedded gcc/bin/../lib/gcc/riscv-none-embed/8.2.0/../../../../riscv-none-embed/lib/rv32imac/ilp32\libg_nano.a(lib_a-puts.o)
 .bss           0x0000000000000000        0x0 c:/mounriver/mounriver_studio/toolchain/risc-v embedded gcc/bin/../lib/gcc/riscv-none-embed/8.2.0/../../../../riscv-none-embed/lib/rv32imac/ilp32\libg_nano.a(lib_a-puts.o)
 .text          0x0000000000000000        0x0 c:/mounriver/mounriver_studio/toolchain/risc-v embedded gcc/bin/../lib/gcc/riscv-none-embed/8.2.0/../../../../riscv-none-embed/lib/rv32imac/ilp32\libg_nano.a(lib_a-realloc.o)
 .data          0x0000000000000000        0x0 c:/mounriver/mounriver_studio/toolchain/risc-v embedded gcc/bin/../lib/gcc/riscv-none-embed/8.2.0/../../../../riscv-none-embed/lib/rv32imac/ilp32\libg_nano.a(lib_a-realloc.o)
 .bss           0x0000000000000000        0x0 c:/mounriver/mounriver_studio/toolchain/risc-v embedded gcc/bin/../lib/gcc/riscv-none-embed/8.2.0/../../../../riscv-none-embed/lib/rv32imac/ilp32\libg_nano.a(lib_a-realloc.o)
 .text.realloc  0x0000000000000000       0x16 c:/mounriver/mounriver_studio/toolchain/risc-v embedded gcc/bin/../lib/gcc/riscv-none-embed/8.2.0/../../../../riscv-none-embed/lib/rv32imac/ilp32\libg_nano.a(lib_a-realloc.o)
 .debug_frame   0x0000000000000000       0x20 c:/mounriver/mounriver_studio/toolchain/risc-v embedded gcc/bin/../lib/gcc/riscv-none-embed/8.2.0/../../../../riscv-none-embed/lib/rv32imac/ilp32\libg_nano.a(lib_a-realloc.o)
 .text          0x0000000000000000        0x0 c:/mounriver/mounriver_studio/toolchain/risc-v embedded gcc/bin/../lib/gcc/riscv-none-embed/8.2.0/../../../../riscv-none-embed/lib/rv32imac/ilp32\libg_nano.a(lib_a-sbrkr.o)
 .data          0x0000000000000000        0x0 c:/mounriver/mounriver_studio/toolchain/risc-v embedded gcc/bin/../lib/gcc/riscv-none-embed/8.2.0/../../../../riscv-none-embed/lib/rv32imac/ilp32\libg_nano.a(lib_a-sbrkr.o)
 .bss           0x0000000000000000        0x0 c:/mounriver/mounriver_studio/toolchain/risc-v embedded gcc/bin/../lib/gcc/riscv-none-embed/8.2.0/../../../../riscv-none-embed/lib/rv32imac/ilp32\libg_nano.a(lib_a-sbrkr.o)
 .text          0x0000000000000000        0x0 c:/mounriver/mounriver_studio/toolchain/risc-v embedded gcc/bin/../lib/gcc/riscv-none-embed/8.2.0/../../../../riscv-none-embed/lib/rv32imac/ilp32\libg_nano.a(lib_a-snprintf.o)
 .data          0x0000000000000000        0x0 c:/mounriver/mounriver_studio/toolchain/risc-v embedded gcc/bin/../lib/gcc/riscv-none-embed/8.2.0/../../../../riscv-none-embed/lib/rv32imac/ilp32\libg_nano.a(lib_a-snprintf.o)
 .bss           0x0000000000000000        0x0 c:/mounriver/mounriver_studio/toolchain/risc-v embedded gcc/bin/../lib/gcc/riscv-none-embed/8.2.0/../../../../riscv-none-embed/lib/rv32imac/ilp32\libg_nano.a(lib_a-snprintf.o)
 .text._snprintf_r
                0x0000000000000000       0x6e c:/mounriver/mounriver_studio/toolchain/risc-v embedded gcc/bin/../lib/gcc/riscv-none-embed/8.2.0/../../../../riscv-none-embed/lib/rv32imac/ilp32\libg_nano.a(lib_a-snprintf.o)
 .text.snprintf
                0x0000000000000000       0x78 c:/mounriver/mounriver_studio/toolchain/risc-v embedded gcc/bin/../lib/gcc/riscv-none-embed/8.2.0/../../../../riscv-none-embed/lib/rv32imac/ilp32\libg_nano.a(lib_a-snprintf.o)
 .debug_frame   0x0000000000000000       0x60 c:/mounriver/mounriver_studio/toolchain/risc-v embedded gcc/bin/../lib/gcc/riscv-none-embed/8.2.0/../../../../riscv-none-embed/lib/rv32imac/ilp32\libg_nano.a(lib_a-snprintf.o)
 .text          0x0000000000000000        0x0 c:/mounriver/mounriver_studio/toolchain/risc-v embedded gcc/bin/../lib/gcc/riscv-none-embed/8.2.0/../../../../riscv-none-embed/lib/rv32imac/ilp32\libg_nano.a(lib_a-sprintf.o)
 .data          0x0000000000000000        0x0 c:/mounriver/mounriver_studio/toolchain/risc-v embedded gcc/bin/../lib/gcc/riscv-none-embed/8.2.0/../../../../riscv-none-embed/lib/rv32imac/ilp32\libg_nano.a(lib_a-sprintf.o)
 .bss           0x0000000000000000        0x0 c:/mounriver/mounriver_studio/toolchain/risc-v embedded gcc/bin/../lib/gcc/riscv-none-embed/8.2.0/../../../../riscv-none-embed/lib/rv32imac/ilp32\libg_nano.a(lib_a-sprintf.o)
 .text._sprintf_r
                0x0000000000000000       0x40 c:/mounriver/mounriver_studio/toolchain/risc-v embedded gcc/bin/../lib/gcc/riscv-none-embed/8.2.0/../../../../riscv-none-embed/lib/rv32imac/ilp32\libg_nano.a(lib_a-sprintf.o)
 .text          0x0000000000000000      0x11e c:/mounriver/mounriver_studio/toolchain/risc-v embedded gcc/bin/../lib/gcc/riscv-none-embed/8.2.0/../../../../riscv-none-embed/lib/rv32imac/ilp32\libg_nano.a(lib_a-strcmp.o)
 .data          0x0000000000000000        0x0 c:/mounriver/mounriver_studio/toolchain/risc-v embedded gcc/bin/../lib/gcc/riscv-none-embed/8.2.0/../../../../riscv-none-embed/lib/rv32imac/ilp32\libg_nano.a(lib_a-strcmp.o)
 .bss           0x0000000000000000        0x0 c:/mounriver/mounriver_studio/toolchain/risc-v embedded gcc/bin/../lib/gcc/riscv-none-embed/8.2.0/../../../../riscv-none-embed/lib/rv32imac/ilp32\libg_nano.a(lib_a-strcmp.o)
 .text          0x0000000000000000        0x0 c:/mounriver/mounriver_studio/toolchain/risc-v embedded gcc/bin/../lib/gcc/riscv-none-embed/8.2.0/../../../../riscv-none-embed/lib/rv32imac/ilp32\libg_nano.a(lib_a-strcpy.o)
 .data          0x0000000000000000        0x0 c:/mounriver/mounriver_studio/toolchain/risc-v embedded gcc/bin/../lib/gcc/riscv-none-embed/8.2.0/../../../../riscv-none-embed/lib/rv32imac/ilp32\libg_nano.a(lib_a-strcpy.o)
 .bss           0x0000000000000000        0x0 c:/mounriver/mounriver_studio/toolchain/risc-v embedded gcc/bin/../lib/gcc/riscv-none-embed/8.2.0/../../../../riscv-none-embed/lib/rv32imac/ilp32\libg_nano.a(lib_a-strcpy.o)
 .text.strcpy   0x0000000000000000       0x12 c:/mounriver/mounriver_studio/toolchain/risc-v embedded gcc/bin/../lib/gcc/riscv-none-embed/8.2.0/../../../../riscv-none-embed/lib/rv32imac/ilp32\libg_nano.a(lib_a-strcpy.o)
 .debug_frame   0x0000000000000000       0x20 c:/mounriver/mounriver_studio/toolchain/risc-v embedded gcc/bin/../lib/gcc/riscv-none-embed/8.2.0/../../../../riscv-none-embed/lib/rv32imac/ilp32\libg_nano.a(lib_a-strcpy.o)
 .text          0x0000000000000000        0x0 c:/mounriver/mounriver_studio/toolchain/risc-v embedded gcc/bin/../lib/gcc/riscv-none-embed/8.2.0/../../../../riscv-none-embed/lib/rv32imac/ilp32\libg_nano.a(lib_a-strlen.o)
 .data          0x0000000000000000        0x0 c:/mounriver/mounriver_studio/toolchain/risc-v embedded gcc/bin/../lib/gcc/riscv-none-embed/8.2.0/../../../../riscv-none-embed/lib/rv32imac/ilp32\libg_nano.a(lib_a-strlen.o)
 .bss           0x0000000000000000        0x0 c:/mounriver/mounriver_studio/toolchain/risc-v embedded gcc/bin/../lib/gcc/riscv-none-embed/8.2.0/../../../../riscv-none-embed/lib/rv32imac/ilp32\libg_nano.a(lib_a-strlen.o)
 .text          0x0000000000000000        0x0 c:/mounriver/mounriver_studio/toolchain/risc-v embedded gcc/bin/../lib/gcc/riscv-none-embed/8.2.0/../../../../riscv-none-embed/lib/rv32imac/ilp32\libg_nano.a(lib_a-vsnprintf.o)
 .data          0x0000000000000000        0x0 c:/mounriver/mounriver_studio/toolchain/risc-v embedded gcc/bin/../lib/gcc/riscv-none-embed/8.2.0/../../../../riscv-none-embed/lib/rv32imac/ilp32\libg_nano.a(lib_a-vsnprintf.o)
 .bss           0x0000000000000000        0x0 c:/mounriver/mounriver_studio/toolchain/risc-v embedded gcc/bin/../lib/gcc/riscv-none-embed/8.2.0/../../../../riscv-none-embed/lib/rv32imac/ilp32\libg_nano.a(lib_a-vsnprintf.o)
 .text._vsnprintf_r
                0x0000000000000000       0x64 c:/mounriver/mounriver_studio/toolchain/risc-v embedded gcc/bin/../lib/gcc/riscv-none-embed/8.2.0/../../../../riscv-none-embed/lib/rv32imac/ilp32\libg_nano.a(lib_a-vsnprintf.o)
 .text.vsnprintf
                0x0000000000000000       0x1a c:/mounriver/mounriver_studio/toolchain/risc-v embedded gcc/bin/../lib/gcc/riscv-none-embed/8.2.0/../../../../riscv-none-embed/lib/rv32imac/ilp32\libg_nano.a(lib_a-vsnprintf.o)
 .debug_frame   0x0000000000000000       0x48 c:/mounriver/mounriver_studio/toolchain/risc-v embedded gcc/bin/../lib/gcc/riscv-none-embed/8.2.0/../../../../riscv-none-embed/lib/rv32imac/ilp32\libg_nano.a(lib_a-vsnprintf.o)
 .text          0x0000000000000000        0x0 c:/mounriver/mounriver_studio/toolchain/risc-v embedded gcc/bin/../lib/gcc/riscv-none-embed/8.2.0/../../../../riscv-none-embed/lib/rv32imac/ilp32\libg_nano.a(lib_a-wbuf.o)
 .data          0x0000000000000000        0x0 c:/mounriver/mounriver_studio/toolchain/risc-v embedded gcc/bin/../lib/gcc/riscv-none-embed/8.2.0/../../../../riscv-none-embed/lib/rv32imac/ilp32\libg_nano.a(lib_a-wbuf.o)
 .bss           0x0000000000000000        0x0 c:/mounriver/mounriver_studio/toolchain/risc-v embedded gcc/bin/../lib/gcc/riscv-none-embed/8.2.0/../../../../riscv-none-embed/lib/rv32imac/ilp32\libg_nano.a(lib_a-wbuf.o)
 .text.__swbuf  0x0000000000000000       0x16 c:/mounriver/mounriver_studio/toolchain/risc-v embedded gcc/bin/../lib/gcc/riscv-none-embed/8.2.0/../../../../riscv-none-embed/lib/rv32imac/ilp32\libg_nano.a(lib_a-wbuf.o)
 .text          0x0000000000000000        0x0 c:/mounriver/mounriver_studio/toolchain/risc-v embedded gcc/bin/../lib/gcc/riscv-none-embed/8.2.0/../../../../riscv-none-embed/lib/rv32imac/ilp32\libg_nano.a(lib_a-wctomb_r.o)
 .data          0x0000000000000000        0x0 c:/mounriver/mounriver_studio/toolchain/risc-v embedded gcc/bin/../lib/gcc/riscv-none-embed/8.2.0/../../../../riscv-none-embed/lib/rv32imac/ilp32\libg_nano.a(lib_a-wctomb_r.o)
 .bss           0x0000000000000000        0x0 c:/mounriver/mounriver_studio/toolchain/risc-v embedded gcc/bin/../lib/gcc/riscv-none-embed/8.2.0/../../../../riscv-none-embed/lib/rv32imac/ilp32\libg_nano.a(lib_a-wctomb_r.o)
 .text._wctomb_r
                0x0000000000000000       0x1c c:/mounriver/mounriver_studio/toolchain/risc-v embedded gcc/bin/../lib/gcc/riscv-none-embed/8.2.0/../../../../riscv-none-embed/lib/rv32imac/ilp32\libg_nano.a(lib_a-wctomb_r.o)
 .text          0x0000000000000000        0x0 c:/mounriver/mounriver_studio/toolchain/risc-v embedded gcc/bin/../lib/gcc/riscv-none-embed/8.2.0/../../../../riscv-none-embed/lib/rv32imac/ilp32\libg_nano.a(lib_a-wsetup.o)
 .data          0x0000000000000000        0x0 c:/mounriver/mounriver_studio/toolchain/risc-v embedded gcc/bin/../lib/gcc/riscv-none-embed/8.2.0/../../../../riscv-none-embed/lib/rv32imac/ilp32\libg_nano.a(lib_a-wsetup.o)
 .bss           0x0000000000000000        0x0 c:/mounriver/mounriver_studio/toolchain/risc-v embedded gcc/bin/../lib/gcc/riscv-none-embed/8.2.0/../../../../riscv-none-embed/lib/rv32imac/ilp32\libg_nano.a(lib_a-wsetup.o)
 .text          0x0000000000000000        0x0 c:/mounriver/mounriver_studio/toolchain/risc-v embedded gcc/bin/../lib/gcc/riscv-none-embed/8.2.0/../../../../riscv-none-embed/lib/rv32imac/ilp32\libg_nano.a(lib_a-ctype_.o)
 .data          0x0000000000000000        0x0 c:/mounriver/mounriver_studio/toolchain/risc-v embedded gcc/bin/../lib/gcc/riscv-none-embed/8.2.0/../../../../riscv-none-embed/lib/rv32imac/ilp32\libg_nano.a(lib_a-ctype_.o)
 .bss           0x0000000000000000        0x0 c:/mounriver/mounriver_studio/toolchain/risc-v embedded gcc/bin/../lib/gcc/riscv-none-embed/8.2.0/../../../../riscv-none-embed/lib/rv32imac/ilp32\libg_nano.a(lib_a-ctype_.o)
 .text          0x0000000000000000        0x0 c:/mounriver/mounriver_studio/toolchain/risc-v embedded gcc/bin/../lib/gcc/riscv-none-embed/8.2.0/../../../../riscv-none-embed/lib/rv32imac/ilp32\libg_nano.a(lib_a-dtoa.o)
 .data          0x0000000000000000        0x0 c:/mounriver/mounriver_studio/toolchain/risc-v embedded gcc/bin/../lib/gcc/riscv-none-embed/8.2.0/../../../../riscv-none-embed/lib/rv32imac/ilp32\libg_nano.a(lib_a-dtoa.o)
 .bss           0x0000000000000000        0x0 c:/mounriver/mounriver_studio/toolchain/risc-v embedded gcc/bin/../lib/gcc/riscv-none-embed/8.2.0/../../../../riscv-none-embed/lib/rv32imac/ilp32\libg_nano.a(lib_a-dtoa.o)
 .text          0x0000000000000000        0x0 c:/mounriver/mounriver_studio/toolchain/risc-v embedded gcc/bin/../lib/gcc/riscv-none-embed/8.2.0/../../../../riscv-none-embed/lib/rv32imac/ilp32\libg_nano.a(lib_a-fflush.o)
 .data          0x0000000000000000        0x0 c:/mounriver/mounriver_studio/toolchain/risc-v embedded gcc/bin/../lib/gcc/riscv-none-embed/8.2.0/../../../../riscv-none-embed/lib/rv32imac/ilp32\libg_nano.a(lib_a-fflush.o)
 .bss           0x0000000000000000        0x0 c:/mounriver/mounriver_studio/toolchain/risc-v embedded gcc/bin/../lib/gcc/riscv-none-embed/8.2.0/../../../../riscv-none-embed/lib/rv32imac/ilp32\libg_nano.a(lib_a-fflush.o)
 .text.fflush   0x0000000000000000       0x30 c:/mounriver/mounriver_studio/toolchain/risc-v embedded gcc/bin/../lib/gcc/riscv-none-embed/8.2.0/../../../../riscv-none-embed/lib/rv32imac/ilp32\libg_nano.a(lib_a-fflush.o)
 .text          0x0000000000000000        0x0 c:/mounriver/mounriver_studio/toolchain/risc-v embedded gcc/bin/../lib/gcc/riscv-none-embed/8.2.0/../../../../riscv-none-embed/lib/rv32imac/ilp32\libg_nano.a(lib_a-findfp.o)
 .data          0x0000000000000000        0x0 c:/mounriver/mounriver_studio/toolchain/risc-v embedded gcc/bin/../lib/gcc/riscv-none-embed/8.2.0/../../../../riscv-none-embed/lib/rv32imac/ilp32\libg_nano.a(lib_a-findfp.o)
 .bss           0x0000000000000000        0x0 c:/mounriver/mounriver_studio/toolchain/risc-v embedded gcc/bin/../lib/gcc/riscv-none-embed/8.2.0/../../../../riscv-none-embed/lib/rv32imac/ilp32\libg_nano.a(lib_a-findfp.o)
 .text.__fp_lock
                0x0000000000000000        0x4 c:/mounriver/mounriver_studio/toolchain/risc-v embedded gcc/bin/../lib/gcc/riscv-none-embed/8.2.0/../../../../riscv-none-embed/lib/rv32imac/ilp32\libg_nano.a(lib_a-findfp.o)
 .text.__fp_unlock
                0x0000000000000000        0x4 c:/mounriver/mounriver_studio/toolchain/risc-v embedded gcc/bin/../lib/gcc/riscv-none-embed/8.2.0/../../../../riscv-none-embed/lib/rv32imac/ilp32\libg_nano.a(lib_a-findfp.o)
 .text._cleanup
                0x0000000000000000       0x12 c:/mounriver/mounriver_studio/toolchain/risc-v embedded gcc/bin/../lib/gcc/riscv-none-embed/8.2.0/../../../../riscv-none-embed/lib/rv32imac/ilp32\libg_nano.a(lib_a-findfp.o)
 .text.__sfp_lock_acquire
                0x0000000000000000        0x2 c:/mounriver/mounriver_studio/toolchain/risc-v embedded gcc/bin/../lib/gcc/riscv-none-embed/8.2.0/../../../../riscv-none-embed/lib/rv32imac/ilp32\libg_nano.a(lib_a-findfp.o)
 .text.__sfp_lock_release
                0x0000000000000000        0x2 c:/mounriver/mounriver_studio/toolchain/risc-v embedded gcc/bin/../lib/gcc/riscv-none-embed/8.2.0/../../../../riscv-none-embed/lib/rv32imac/ilp32\libg_nano.a(lib_a-findfp.o)
 .text.__sinit_lock_acquire
                0x0000000000000000        0x2 c:/mounriver/mounriver_studio/toolchain/risc-v embedded gcc/bin/../lib/gcc/riscv-none-embed/8.2.0/../../../../riscv-none-embed/lib/rv32imac/ilp32\libg_nano.a(lib_a-findfp.o)
 .text.__sinit_lock_release
                0x0000000000000000        0x2 c:/mounriver/mounriver_studio/toolchain/risc-v embedded gcc/bin/../lib/gcc/riscv-none-embed/8.2.0/../../../../riscv-none-embed/lib/rv32imac/ilp32\libg_nano.a(lib_a-findfp.o)
 .text.__fp_lock_all
                0x0000000000000000       0x1a c:/mounriver/mounriver_studio/toolchain/risc-v embedded gcc/bin/../lib/gcc/riscv-none-embed/8.2.0/../../../../riscv-none-embed/lib/rv32imac/ilp32\libg_nano.a(lib_a-findfp.o)
 .text.__fp_unlock_all
                0x0000000000000000       0x1a c:/mounriver/mounriver_studio/toolchain/risc-v embedded gcc/bin/../lib/gcc/riscv-none-embed/8.2.0/../../../../riscv-none-embed/lib/rv32imac/ilp32\libg_nano.a(lib_a-findfp.o)
 .text          0x0000000000000000        0x0 c:/mounriver/mounriver_studio/toolchain/risc-v embedded gcc/bin/../lib/gcc/riscv-none-embed/8.2.0/../../../../riscv-none-embed/lib/rv32imac/ilp32\libg_nano.a(lib_a-fwalk.o)
 .data          0x0000000000000000        0x0 c:/mounriver/mounriver_studio/toolchain/risc-v embedded gcc/bin/../lib/gcc/riscv-none-embed/8.2.0/../../../../riscv-none-embed/lib/rv32imac/ilp32\libg_nano.a(lib_a-fwalk.o)
 .bss           0x0000000000000000        0x0 c:/mounriver/mounriver_studio/toolchain/risc-v embedded gcc/bin/../lib/gcc/riscv-none-embed/8.2.0/../../../../riscv-none-embed/lib/rv32imac/ilp32\libg_nano.a(lib_a-fwalk.o)
 .text._fwalk   0x0000000000000000       0x62 c:/mounriver/mounriver_studio/toolchain/risc-v embedded gcc/bin/../lib/gcc/riscv-none-embed/8.2.0/../../../../riscv-none-embed/lib/rv32imac/ilp32\libg_nano.a(lib_a-fwalk.o)
 .text          0x0000000000000000        0x0 c:/mounriver/mounriver_studio/toolchain/risc-v embedded gcc/bin/../lib/gcc/riscv-none-embed/8.2.0/../../../../riscv-none-embed/lib/rv32imac/ilp32\libg_nano.a(lib_a-impure.o)
 .data          0x0000000000000000        0x0 c:/mounriver/mounriver_studio/toolchain/risc-v embedded gcc/bin/../lib/gcc/riscv-none-embed/8.2.0/../../../../riscv-none-embed/lib/rv32imac/ilp32\libg_nano.a(lib_a-impure.o)
 .bss           0x0000000000000000        0x0 c:/mounriver/mounriver_studio/toolchain/risc-v embedded gcc/bin/../lib/gcc/riscv-none-embed/8.2.0/../../../../riscv-none-embed/lib/rv32imac/ilp32\libg_nano.a(lib_a-impure.o)
 .text          0x0000000000000000        0x0 c:/mounriver/mounriver_studio/toolchain/risc-v embedded gcc/bin/../lib/gcc/riscv-none-embed/8.2.0/../../../../riscv-none-embed/lib/rv32imac/ilp32\libg_nano.a(lib_a-localeconv.o)
 .data          0x0000000000000000        0x0 c:/mounriver/mounriver_studio/toolchain/risc-v embedded gcc/bin/../lib/gcc/riscv-none-embed/8.2.0/../../../../riscv-none-embed/lib/rv32imac/ilp32\libg_nano.a(lib_a-localeconv.o)
 .bss           0x0000000000000000        0x0 c:/mounriver/mounriver_studio/toolchain/risc-v embedded gcc/bin/../lib/gcc/riscv-none-embed/8.2.0/../../../../riscv-none-embed/lib/rv32imac/ilp32\libg_nano.a(lib_a-localeconv.o)
 .text.__localeconv_l
                0x0000000000000000        0x6 c:/mounriver/mounriver_studio/toolchain/risc-v embedded gcc/bin/../lib/gcc/riscv-none-embed/8.2.0/../../../../riscv-none-embed/lib/rv32imac/ilp32\libg_nano.a(lib_a-localeconv.o)
 .text.localeconv
                0x0000000000000000       0x1c c:/mounriver/mounriver_studio/toolchain/risc-v embedded gcc/bin/../lib/gcc/riscv-none-embed/8.2.0/../../../../riscv-none-embed/lib/rv32imac/ilp32\libg_nano.a(lib_a-localeconv.o)
 .text          0x0000000000000000        0x0 c:/mounriver/mounriver_studio/toolchain/risc-v embedded gcc/bin/../lib/gcc/riscv-none-embed/8.2.0/../../../../riscv-none-embed/lib/rv32imac/ilp32\libg_nano.a(lib_a-makebuf.o)
 .data          0x0000000000000000        0x0 c:/mounriver/mounriver_studio/toolchain/risc-v embedded gcc/bin/../lib/gcc/riscv-none-embed/8.2.0/../../../../riscv-none-embed/lib/rv32imac/ilp32\libg_nano.a(lib_a-makebuf.o)
 .bss           0x0000000000000000        0x0 c:/mounriver/mounriver_studio/toolchain/risc-v embedded gcc/bin/../lib/gcc/riscv-none-embed/8.2.0/../../../../riscv-none-embed/lib/rv32imac/ilp32\libg_nano.a(lib_a-makebuf.o)
 .text          0x0000000000000000        0x0 c:/mounriver/mounriver_studio/toolchain/risc-v embedded gcc/bin/../lib/gcc/riscv-none-embed/8.2.0/../../../../riscv-none-embed/lib/rv32imac/ilp32\libg_nano.a(lib_a-memchr.o)
 .data          0x0000000000000000        0x0 c:/mounriver/mounriver_studio/toolchain/risc-v embedded gcc/bin/../lib/gcc/riscv-none-embed/8.2.0/../../../../riscv-none-embed/lib/rv32imac/ilp32\libg_nano.a(lib_a-memchr.o)
 .bss           0x0000000000000000        0x0 c:/mounriver/mounriver_studio/toolchain/risc-v embedded gcc/bin/../lib/gcc/riscv-none-embed/8.2.0/../../../../riscv-none-embed/lib/rv32imac/ilp32\libg_nano.a(lib_a-memchr.o)
 .text          0x0000000000000000        0x0 c:/mounriver/mounriver_studio/toolchain/risc-v embedded gcc/bin/../lib/gcc/riscv-none-embed/8.2.0/../../../../riscv-none-embed/lib/rv32imac/ilp32\libg_nano.a(lib_a-mlock.o)
 .data          0x0000000000000000        0x0 c:/mounriver/mounriver_studio/toolchain/risc-v embedded gcc/bin/../lib/gcc/riscv-none-embed/8.2.0/../../../../riscv-none-embed/lib/rv32imac/ilp32\libg_nano.a(lib_a-mlock.o)
 .bss           0x0000000000000000        0x0 c:/mounriver/mounriver_studio/toolchain/risc-v embedded gcc/bin/../lib/gcc/riscv-none-embed/8.2.0/../../../../riscv-none-embed/lib/rv32imac/ilp32\libg_nano.a(lib_a-mlock.o)
 .text          0x0000000000000000        0x0 c:/mounriver/mounriver_studio/toolchain/risc-v embedded gcc/bin/../lib/gcc/riscv-none-embed/8.2.0/../../../../riscv-none-embed/lib/rv32imac/ilp32\libg_nano.a(lib_a-mprec.o)
 .data          0x0000000000000000        0x0 c:/mounriver/mounriver_studio/toolchain/risc-v embedded gcc/bin/../lib/gcc/riscv-none-embed/8.2.0/../../../../riscv-none-embed/lib/rv32imac/ilp32\libg_nano.a(lib_a-mprec.o)
 .bss           0x0000000000000000        0x0 c:/mounriver/mounriver_studio/toolchain/risc-v embedded gcc/bin/../lib/gcc/riscv-none-embed/8.2.0/../../../../riscv-none-embed/lib/rv32imac/ilp32\libg_nano.a(lib_a-mprec.o)
 .text.__s2b    0x0000000000000000       0xb2 c:/mounriver/mounriver_studio/toolchain/risc-v embedded gcc/bin/../lib/gcc/riscv-none-embed/8.2.0/../../../../riscv-none-embed/lib/rv32imac/ilp32\libg_nano.a(lib_a-mprec.o)
 .text.__ulp    0x0000000000000000       0x46 c:/mounriver/mounriver_studio/toolchain/risc-v embedded gcc/bin/../lib/gcc/riscv-none-embed/8.2.0/../../../../riscv-none-embed/lib/rv32imac/ilp32\libg_nano.a(lib_a-mprec.o)
 .text.__b2d    0x0000000000000000       0xb8 c:/mounriver/mounriver_studio/toolchain/risc-v embedded gcc/bin/../lib/gcc/riscv-none-embed/8.2.0/../../../../riscv-none-embed/lib/rv32imac/ilp32\libg_nano.a(lib_a-mprec.o)
 .text.__ratio  0x0000000000000000       0x80 c:/mounriver/mounriver_studio/toolchain/risc-v embedded gcc/bin/../lib/gcc/riscv-none-embed/8.2.0/../../../../riscv-none-embed/lib/rv32imac/ilp32\libg_nano.a(lib_a-mprec.o)
 .text._mprec_log10
                0x0000000000000000       0x5e c:/mounriver/mounriver_studio/toolchain/risc-v embedded gcc/bin/../lib/gcc/riscv-none-embed/8.2.0/../../../../riscv-none-embed/lib/rv32imac/ilp32\libg_nano.a(lib_a-mprec.o)
 .text.__copybits
                0x0000000000000000       0x36 c:/mounriver/mounriver_studio/toolchain/risc-v embedded gcc/bin/../lib/gcc/riscv-none-embed/8.2.0/../../../../riscv-none-embed/lib/rv32imac/ilp32\libg_nano.a(lib_a-mprec.o)
 .text.__any_on
                0x0000000000000000       0x46 c:/mounriver/mounriver_studio/toolchain/risc-v embedded gcc/bin/../lib/gcc/riscv-none-embed/8.2.0/../../../../riscv-none-embed/lib/rv32imac/ilp32\libg_nano.a(lib_a-mprec.o)
 .rodata.__mprec_tinytens
                0x0000000000000000       0x28 c:/mounriver/mounriver_studio/toolchain/risc-v embedded gcc/bin/../lib/gcc/riscv-none-embed/8.2.0/../../../../riscv-none-embed/lib/rv32imac/ilp32\libg_nano.a(lib_a-mprec.o)
 .rodata._mprec_log10.cst8
                0x0000000000000000       0x10 c:/mounriver/mounriver_studio/toolchain/risc-v embedded gcc/bin/../lib/gcc/riscv-none-embed/8.2.0/../../../../riscv-none-embed/lib/rv32imac/ilp32\libg_nano.a(lib_a-mprec.o)
 .text          0x0000000000000000        0x0 c:/mounriver/mounriver_studio/toolchain/risc-v embedded gcc/bin/../lib/gcc/riscv-none-embed/8.2.0/../../../../riscv-none-embed/lib/rv32imac/ilp32\libg_nano.a(lib_a-nano-callocr.o)
 .data          0x0000000000000000        0x0 c:/mounriver/mounriver_studio/toolchain/risc-v embedded gcc/bin/../lib/gcc/riscv-none-embed/8.2.0/../../../../riscv-none-embed/lib/rv32imac/ilp32\libg_nano.a(lib_a-nano-callocr.o)
 .bss           0x0000000000000000        0x0 c:/mounriver/mounriver_studio/toolchain/risc-v embedded gcc/bin/../lib/gcc/riscv-none-embed/8.2.0/../../../../riscv-none-embed/lib/rv32imac/ilp32\libg_nano.a(lib_a-nano-callocr.o)
 .text          0x0000000000000000        0x0 c:/mounriver/mounriver_studio/toolchain/risc-v embedded gcc/bin/../lib/gcc/riscv-none-embed/8.2.0/../../../../riscv-none-embed/lib/rv32imac/ilp32\libg_nano.a(lib_a-nano-reallocr.o)
 .data          0x0000000000000000        0x0 c:/mounriver/mounriver_studio/toolchain/risc-v embedded gcc/bin/../lib/gcc/riscv-none-embed/8.2.0/../../../../riscv-none-embed/lib/rv32imac/ilp32\libg_nano.a(lib_a-nano-reallocr.o)
 .bss           0x0000000000000000        0x0 c:/mounriver/mounriver_studio/toolchain/risc-v embedded gcc/bin/../lib/gcc/riscv-none-embed/8.2.0/../../../../riscv-none-embed/lib/rv32imac/ilp32\libg_nano.a(lib_a-nano-reallocr.o)
 .text          0x0000000000000000        0x0 c:/mounriver/mounriver_studio/toolchain/risc-v embedded gcc/bin/../lib/gcc/riscv-none-embed/8.2.0/../../../../riscv-none-embed/lib/rv32imac/ilp32\libg_nano.a(lib_a-nano-svfprintf.o)
 .data          0x0000000000000000        0x0 c:/mounriver/mounriver_studio/toolchain/risc-v embedded gcc/bin/../lib/gcc/riscv-none-embed/8.2.0/../../../../riscv-none-embed/lib/rv32imac/ilp32\libg_nano.a(lib_a-nano-svfprintf.o)
 .bss           0x0000000000000000        0x0 c:/mounriver/mounriver_studio/toolchain/risc-v embedded gcc/bin/../lib/gcc/riscv-none-embed/8.2.0/../../../../riscv-none-embed/lib/rv32imac/ilp32\libg_nano.a(lib_a-nano-svfprintf.o)
 .text.__ssprint_r
                0x0000000000000000      0x148 c:/mounriver/mounriver_studio/toolchain/risc-v embedded gcc/bin/../lib/gcc/riscv-none-embed/8.2.0/../../../../riscv-none-embed/lib/rv32imac/ilp32\libg_nano.a(lib_a-nano-svfprintf.o)
 .text          0x0000000000000000        0x0 c:/mounriver/mounriver_studio/toolchain/risc-v embedded gcc/bin/../lib/gcc/riscv-none-embed/8.2.0/../../../../riscv-none-embed/lib/rv32imac/ilp32\libg_nano.a(lib_a-nano-vfprintf.o)
 .data          0x0000000000000000        0x0 c:/mounriver/mounriver_studio/toolchain/risc-v embedded gcc/bin/../lib/gcc/riscv-none-embed/8.2.0/../../../../riscv-none-embed/lib/rv32imac/ilp32\libg_nano.a(lib_a-nano-vfprintf.o)
 .bss           0x0000000000000000        0x0 c:/mounriver/mounriver_studio/toolchain/risc-v embedded gcc/bin/../lib/gcc/riscv-none-embed/8.2.0/../../../../riscv-none-embed/lib/rv32imac/ilp32\libg_nano.a(lib_a-nano-vfprintf.o)
 .text.__sprint_r
                0x0000000000000000       0x2c c:/mounriver/mounriver_studio/toolchain/risc-v embedded gcc/bin/../lib/gcc/riscv-none-embed/8.2.0/../../../../riscv-none-embed/lib/rv32imac/ilp32\libg_nano.a(lib_a-nano-vfprintf.o)
 .text.vfprintf
                0x0000000000000000       0x18 c:/mounriver/mounriver_studio/toolchain/risc-v embedded gcc/bin/../lib/gcc/riscv-none-embed/8.2.0/../../../../riscv-none-embed/lib/rv32imac/ilp32\libg_nano.a(lib_a-nano-vfprintf.o)
 .text          0x0000000000000000        0x0 c:/mounriver/mounriver_studio/toolchain/risc-v embedded gcc/bin/../lib/gcc/riscv-none-embed/8.2.0/../../../../riscv-none-embed/lib/rv32imac/ilp32\libg_nano.a(lib_a-putc.o)
 .data          0x0000000000000000        0x0 c:/mounriver/mounriver_studio/toolchain/risc-v embedded gcc/bin/../lib/gcc/riscv-none-embed/8.2.0/../../../../riscv-none-embed/lib/rv32imac/ilp32\libg_nano.a(lib_a-putc.o)
 .bss           0x0000000000000000        0x0 c:/mounriver/mounriver_studio/toolchain/risc-v embedded gcc/bin/../lib/gcc/riscv-none-embed/8.2.0/../../../../riscv-none-embed/lib/rv32imac/ilp32\libg_nano.a(lib_a-putc.o)
 .text._putc_r  0x0000000000000000       0x8e c:/mounriver/mounriver_studio/toolchain/risc-v embedded gcc/bin/../lib/gcc/riscv-none-embed/8.2.0/../../../../riscv-none-embed/lib/rv32imac/ilp32\libg_nano.a(lib_a-putc.o)
 .text.putc     0x0000000000000000       0x16 c:/mounriver/mounriver_studio/toolchain/risc-v embedded gcc/bin/../lib/gcc/riscv-none-embed/8.2.0/../../../../riscv-none-embed/lib/rv32imac/ilp32\libg_nano.a(lib_a-putc.o)
 .debug_frame   0x0000000000000000       0x4c c:/mounriver/mounriver_studio/toolchain/risc-v embedded gcc/bin/../lib/gcc/riscv-none-embed/8.2.0/../../../../riscv-none-embed/lib/rv32imac/ilp32\libg_nano.a(lib_a-putc.o)
 .text          0x0000000000000000        0x0 c:/mounriver/mounriver_studio/toolchain/risc-v embedded gcc/bin/../lib/gcc/riscv-none-embed/8.2.0/../../../../riscv-none-embed/lib/rv32imac/ilp32\libg_nano.a(lib_a-reent.o)
 .data          0x0000000000000000        0x0 c:/mounriver/mounriver_studio/toolchain/risc-v embedded gcc/bin/../lib/gcc/riscv-none-embed/8.2.0/../../../../riscv-none-embed/lib/rv32imac/ilp32\libg_nano.a(lib_a-reent.o)
 .bss           0x0000000000000000        0x0 c:/mounriver/mounriver_studio/toolchain/risc-v embedded gcc/bin/../lib/gcc/riscv-none-embed/8.2.0/../../../../riscv-none-embed/lib/rv32imac/ilp32\libg_nano.a(lib_a-reent.o)
 .text.cleanup_glue
                0x0000000000000000       0x2c c:/mounriver/mounriver_studio/toolchain/risc-v embedded gcc/bin/../lib/gcc/riscv-none-embed/8.2.0/../../../../riscv-none-embed/lib/rv32imac/ilp32\libg_nano.a(lib_a-reent.o)
 .text._reclaim_reent
                0x0000000000000000      0x10c c:/mounriver/mounriver_studio/toolchain/risc-v embedded gcc/bin/../lib/gcc/riscv-none-embed/8.2.0/../../../../riscv-none-embed/lib/rv32imac/ilp32\libg_nano.a(lib_a-reent.o)
 .text          0x0000000000000000        0x0 c:/mounriver/mounriver_studio/toolchain/risc-v embedded gcc/bin/../lib/gcc/riscv-none-embed/8.2.0/../../../../riscv-none-embed/lib/rv32imac/ilp32\libg_nano.a(lib_a-stdio.o)
 .data          0x0000000000000000        0x0 c:/mounriver/mounriver_studio/toolchain/risc-v embedded gcc/bin/../lib/gcc/riscv-none-embed/8.2.0/../../../../riscv-none-embed/lib/rv32imac/ilp32\libg_nano.a(lib_a-stdio.o)
 .bss           0x0000000000000000        0x0 c:/mounriver/mounriver_studio/toolchain/risc-v embedded gcc/bin/../lib/gcc/riscv-none-embed/8.2.0/../../../../riscv-none-embed/lib/rv32imac/ilp32\libg_nano.a(lib_a-stdio.o)
 .text.__seofread
                0x0000000000000000        0x4 c:/mounriver/mounriver_studio/toolchain/risc-v embedded gcc/bin/../lib/gcc/riscv-none-embed/8.2.0/../../../../riscv-none-embed/lib/rv32imac/ilp32\libg_nano.a(lib_a-stdio.o)
 .text          0x0000000000000000        0x0 c:/mounriver/mounriver_studio/toolchain/risc-v embedded gcc/bin/../lib/gcc/riscv-none-embed/8.2.0/../../../../riscv-none-embed/lib/rv32imac/ilp32\libg_nano.a(lib_a-writer.o)
 .data          0x0000000000000000        0x0 c:/mounriver/mounriver_studio/toolchain/risc-v embedded gcc/bin/../lib/gcc/riscv-none-embed/8.2.0/../../../../riscv-none-embed/lib/rv32imac/ilp32\libg_nano.a(lib_a-writer.o)
 .bss           0x0000000000000000        0x0 c:/mounriver/mounriver_studio/toolchain/risc-v embedded gcc/bin/../lib/gcc/riscv-none-embed/8.2.0/../../../../riscv-none-embed/lib/rv32imac/ilp32\libg_nano.a(lib_a-writer.o)
 .text          0x0000000000000000        0x0 c:/mounriver/mounriver_studio/toolchain/risc-v embedded gcc/bin/../lib/gcc/riscv-none-embed/8.2.0/../../../../riscv-none-embed/lib/rv32imac/ilp32\libg_nano.a(lib_a-closer.o)
 .data          0x0000000000000000        0x0 c:/mounriver/mounriver_studio/toolchain/risc-v embedded gcc/bin/../lib/gcc/riscv-none-embed/8.2.0/../../../../riscv-none-embed/lib/rv32imac/ilp32\libg_nano.a(lib_a-closer.o)
 .bss           0x0000000000000000        0x0 c:/mounriver/mounriver_studio/toolchain/risc-v embedded gcc/bin/../lib/gcc/riscv-none-embed/8.2.0/../../../../riscv-none-embed/lib/rv32imac/ilp32\libg_nano.a(lib_a-closer.o)
 .text          0x0000000000000000        0x0 c:/mounriver/mounriver_studio/toolchain/risc-v embedded gcc/bin/../lib/gcc/riscv-none-embed/8.2.0/../../../../riscv-none-embed/lib/rv32imac/ilp32\libg_nano.a(lib_a-fstatr.o)
 .data          0x0000000000000000        0x0 c:/mounriver/mounriver_studio/toolchain/risc-v embedded gcc/bin/../lib/gcc/riscv-none-embed/8.2.0/../../../../riscv-none-embed/lib/rv32imac/ilp32\libg_nano.a(lib_a-fstatr.o)
 .bss           0x0000000000000000        0x0 c:/mounriver/mounriver_studio/toolchain/risc-v embedded gcc/bin/../lib/gcc/riscv-none-embed/8.2.0/../../../../riscv-none-embed/lib/rv32imac/ilp32\libg_nano.a(lib_a-fstatr.o)
 .text          0x0000000000000000        0x0 c:/mounriver/mounriver_studio/toolchain/risc-v embedded gcc/bin/../lib/gcc/riscv-none-embed/8.2.0/../../../../riscv-none-embed/lib/rv32imac/ilp32\libg_nano.a(lib_a-fvwrite.o)
 .data          0x0000000000000000        0x0 c:/mounriver/mounriver_studio/toolchain/risc-v embedded gcc/bin/../lib/gcc/riscv-none-embed/8.2.0/../../../../riscv-none-embed/lib/rv32imac/ilp32\libg_nano.a(lib_a-fvwrite.o)
 .bss           0x0000000000000000        0x0 c:/mounriver/mounriver_studio/toolchain/risc-v embedded gcc/bin/../lib/gcc/riscv-none-embed/8.2.0/../../../../riscv-none-embed/lib/rv32imac/ilp32\libg_nano.a(lib_a-fvwrite.o)
 .text.__sfvwrite_r
                0x0000000000000000      0x31a c:/mounriver/mounriver_studio/toolchain/risc-v embedded gcc/bin/../lib/gcc/riscv-none-embed/8.2.0/../../../../riscv-none-embed/lib/rv32imac/ilp32\libg_nano.a(lib_a-fvwrite.o)
 .debug_frame   0x0000000000000000       0x60 c:/mounriver/mounriver_studio/toolchain/risc-v embedded gcc/bin/../lib/gcc/riscv-none-embed/8.2.0/../../../../riscv-none-embed/lib/rv32imac/ilp32\libg_nano.a(lib_a-fvwrite.o)
 .text          0x0000000000000000        0x0 c:/mounriver/mounriver_studio/toolchain/risc-v embedded gcc/bin/../lib/gcc/riscv-none-embed/8.2.0/../../../../riscv-none-embed/lib/rv32imac/ilp32\libg_nano.a(lib_a-isattyr.o)
 .data          0x0000000000000000        0x0 c:/mounriver/mounriver_studio/toolchain/risc-v embedded gcc/bin/../lib/gcc/riscv-none-embed/8.2.0/../../../../riscv-none-embed/lib/rv32imac/ilp32\libg_nano.a(lib_a-isattyr.o)
 .bss           0x0000000000000000        0x0 c:/mounriver/mounriver_studio/toolchain/risc-v embedded gcc/bin/../lib/gcc/riscv-none-embed/8.2.0/../../../../riscv-none-embed/lib/rv32imac/ilp32\libg_nano.a(lib_a-isattyr.o)
 .text          0x0000000000000000        0x0 c:/mounriver/mounriver_studio/toolchain/risc-v embedded gcc/bin/../lib/gcc/riscv-none-embed/8.2.0/../../../../riscv-none-embed/lib/rv32imac/ilp32\libg_nano.a(lib_a-lseekr.o)
 .data          0x0000000000000000        0x0 c:/mounriver/mounriver_studio/toolchain/risc-v embedded gcc/bin/../lib/gcc/riscv-none-embed/8.2.0/../../../../riscv-none-embed/lib/rv32imac/ilp32\libg_nano.a(lib_a-lseekr.o)
 .bss           0x0000000000000000        0x0 c:/mounriver/mounriver_studio/toolchain/risc-v embedded gcc/bin/../lib/gcc/riscv-none-embed/8.2.0/../../../../riscv-none-embed/lib/rv32imac/ilp32\libg_nano.a(lib_a-lseekr.o)
 .text          0x0000000000000000        0x0 c:/mounriver/mounriver_studio/toolchain/risc-v embedded gcc/bin/../lib/gcc/riscv-none-embed/8.2.0/../../../../riscv-none-embed/lib/rv32imac/ilp32\libg_nano.a(lib_a-memmove.o)
 .data          0x0000000000000000        0x0 c:/mounriver/mounriver_studio/toolchain/risc-v embedded gcc/bin/../lib/gcc/riscv-none-embed/8.2.0/../../../../riscv-none-embed/lib/rv32imac/ilp32\libg_nano.a(lib_a-memmove.o)
 .bss           0x0000000000000000        0x0 c:/mounriver/mounriver_studio/toolchain/risc-v embedded gcc/bin/../lib/gcc/riscv-none-embed/8.2.0/../../../../riscv-none-embed/lib/rv32imac/ilp32\libg_nano.a(lib_a-memmove.o)
 .text          0x0000000000000000        0x0 c:/mounriver/mounriver_studio/toolchain/risc-v embedded gcc/bin/../lib/gcc/riscv-none-embed/8.2.0/../../../../riscv-none-embed/lib/rv32imac/ilp32\libg_nano.a(lib_a-nano-msizer.o)
 .data          0x0000000000000000        0x0 c:/mounriver/mounriver_studio/toolchain/risc-v embedded gcc/bin/../lib/gcc/riscv-none-embed/8.2.0/../../../../riscv-none-embed/lib/rv32imac/ilp32\libg_nano.a(lib_a-nano-msizer.o)
 .bss           0x0000000000000000        0x0 c:/mounriver/mounriver_studio/toolchain/risc-v embedded gcc/bin/../lib/gcc/riscv-none-embed/8.2.0/../../../../riscv-none-embed/lib/rv32imac/ilp32\libg_nano.a(lib_a-nano-msizer.o)
 .text          0x0000000000000000        0x0 c:/mounriver/mounriver_studio/toolchain/risc-v embedded gcc/bin/../lib/gcc/riscv-none-embed/8.2.0/../../../../riscv-none-embed/lib/rv32imac/ilp32\libg_nano.a(lib_a-readr.o)
 .data          0x0000000000000000        0x0 c:/mounriver/mounriver_studio/toolchain/risc-v embedded gcc/bin/../lib/gcc/riscv-none-embed/8.2.0/../../../../riscv-none-embed/lib/rv32imac/ilp32\libg_nano.a(lib_a-readr.o)
 .bss           0x0000000000000000        0x0 c:/mounriver/mounriver_studio/toolchain/risc-v embedded gcc/bin/../lib/gcc/riscv-none-embed/8.2.0/../../../../riscv-none-embed/lib/rv32imac/ilp32\libg_nano.a(lib_a-readr.o)
 .text          0x0000000000000000        0x0 c:/mounriver/mounriver_studio/toolchain/risc-v embedded gcc/bin/../lib/gcc/riscv-none-embed/8.2.0/rv32imac/ilp32\libgcc.a(eqdf2.o)
 .data          0x0000000000000000        0x0 c:/mounriver/mounriver_studio/toolchain/risc-v embedded gcc/bin/../lib/gcc/riscv-none-embed/8.2.0/rv32imac/ilp32\libgcc.a(eqdf2.o)
 .bss           0x0000000000000000        0x0 c:/mounriver/mounriver_studio/toolchain/risc-v embedded gcc/bin/../lib/gcc/riscv-none-embed/8.2.0/rv32imac/ilp32\libgcc.a(eqdf2.o)
 .text          0x0000000000000000        0x0 c:/mounriver/mounriver_studio/toolchain/risc-v embedded gcc/bin/../lib/gcc/riscv-none-embed/8.2.0/rv32imac/ilp32\libgcc.a(gedf2.o)
 .data          0x0000000000000000        0x0 c:/mounriver/mounriver_studio/toolchain/risc-v embedded gcc/bin/../lib/gcc/riscv-none-embed/8.2.0/rv32imac/ilp32\libgcc.a(gedf2.o)
 .bss           0x0000000000000000        0x0 c:/mounriver/mounriver_studio/toolchain/risc-v embedded gcc/bin/../lib/gcc/riscv-none-embed/8.2.0/rv32imac/ilp32\libgcc.a(gedf2.o)
 .text          0x0000000000000000        0x0 c:/mounriver/mounriver_studio/toolchain/risc-v embedded gcc/bin/../lib/gcc/riscv-none-embed/8.2.0/rv32imac/ilp32\libgcc.a(ledf2.o)
 .data          0x0000000000000000        0x0 c:/mounriver/mounriver_studio/toolchain/risc-v embedded gcc/bin/../lib/gcc/riscv-none-embed/8.2.0/rv32imac/ilp32\libgcc.a(ledf2.o)
 .bss           0x0000000000000000        0x0 c:/mounriver/mounriver_studio/toolchain/risc-v embedded gcc/bin/../lib/gcc/riscv-none-embed/8.2.0/rv32imac/ilp32\libgcc.a(ledf2.o)
 .text          0x0000000000000000        0x0 c:/mounriver/mounriver_studio/toolchain/risc-v embedded gcc/bin/../lib/gcc/riscv-none-embed/8.2.0/rv32imac/ilp32\libgcc.a(unorddf2.o)
 .data          0x0000000000000000        0x0 c:/mounriver/mounriver_studio/toolchain/risc-v embedded gcc/bin/../lib/gcc/riscv-none-embed/8.2.0/rv32imac/ilp32\libgcc.a(unorddf2.o)
 .bss           0x0000000000000000        0x0 c:/mounriver/mounriver_studio/toolchain/risc-v embedded gcc/bin/../lib/gcc/riscv-none-embed/8.2.0/rv32imac/ilp32\libgcc.a(unorddf2.o)
 .text          0x0000000000000000        0x0 c:/mounriver/mounriver_studio/toolchain/risc-v embedded gcc/bin/../lib/gcc/riscv-none-embed/8.2.0/rv32imac/ilp32\libgcc.a(fixdfsi.o)
 .data          0x0000000000000000        0x0 c:/mounriver/mounriver_studio/toolchain/risc-v embedded gcc/bin/../lib/gcc/riscv-none-embed/8.2.0/rv32imac/ilp32\libgcc.a(fixdfsi.o)
 .bss           0x0000000000000000        0x0 c:/mounriver/mounriver_studio/toolchain/risc-v embedded gcc/bin/../lib/gcc/riscv-none-embed/8.2.0/rv32imac/ilp32\libgcc.a(fixdfsi.o)
 .text          0x0000000000000000        0x0 c:/mounriver/mounriver_studio/toolchain/risc-v embedded gcc/bin/../lib/gcc/riscv-none-embed/8.2.0/rv32imac/ilp32\libgcc.a(floatunsidf.o)
 .data          0x0000000000000000        0x0 c:/mounriver/mounriver_studio/toolchain/risc-v embedded gcc/bin/../lib/gcc/riscv-none-embed/8.2.0/rv32imac/ilp32\libgcc.a(floatunsidf.o)
 .bss           0x0000000000000000        0x0 c:/mounriver/mounriver_studio/toolchain/risc-v embedded gcc/bin/../lib/gcc/riscv-none-embed/8.2.0/rv32imac/ilp32\libgcc.a(floatunsidf.o)
 .text          0x0000000000000000        0x0 c:/mounriver/mounriver_studio/toolchain/risc-v embedded gcc/bin/../lib/gcc/riscv-none-embed/8.2.0/rv32imac/ilp32\libgcc.a(trunctfdf2.o)
 .data          0x0000000000000000        0x0 c:/mounriver/mounriver_studio/toolchain/risc-v embedded gcc/bin/../lib/gcc/riscv-none-embed/8.2.0/rv32imac/ilp32\libgcc.a(trunctfdf2.o)
 .bss           0x0000000000000000        0x0 c:/mounriver/mounriver_studio/toolchain/risc-v embedded gcc/bin/../lib/gcc/riscv-none-embed/8.2.0/rv32imac/ilp32\libgcc.a(trunctfdf2.o)
 .text          0x0000000000000000        0x0 c:/mounriver/mounriver_studio/toolchain/risc-v embedded gcc/bin/../lib/gcc/riscv-none-embed/8.2.0/../../../../riscv-none-embed/lib/rv32imac/ilp32\libnosys.a(close.o)
 .data          0x0000000000000000        0x0 c:/mounriver/mounriver_studio/toolchain/risc-v embedded gcc/bin/../lib/gcc/riscv-none-embed/8.2.0/../../../../riscv-none-embed/lib/rv32imac/ilp32\libnosys.a(close.o)
 .bss           0x0000000000000000        0x0 c:/mounriver/mounriver_studio/toolchain/risc-v embedded gcc/bin/../lib/gcc/riscv-none-embed/8.2.0/../../../../riscv-none-embed/lib/rv32imac/ilp32\libnosys.a(close.o)
 .text          0x0000000000000000        0x0 c:/mounriver/mounriver_studio/toolchain/risc-v embedded gcc/bin/../lib/gcc/riscv-none-embed/8.2.0/../../../../riscv-none-embed/lib/rv32imac/ilp32\libnosys.a(fstat.o)
 .data          0x0000000000000000        0x0 c:/mounriver/mounriver_studio/toolchain/risc-v embedded gcc/bin/../lib/gcc/riscv-none-embed/8.2.0/../../../../riscv-none-embed/lib/rv32imac/ilp32\libnosys.a(fstat.o)
 .bss           0x0000000000000000        0x0 c:/mounriver/mounriver_studio/toolchain/risc-v embedded gcc/bin/../lib/gcc/riscv-none-embed/8.2.0/../../../../riscv-none-embed/lib/rv32imac/ilp32\libnosys.a(fstat.o)
 .text          0x0000000000000000        0x0 c:/mounriver/mounriver_studio/toolchain/risc-v embedded gcc/bin/../lib/gcc/riscv-none-embed/8.2.0/../../../../riscv-none-embed/lib/rv32imac/ilp32\libnosys.a(isatty.o)
 .data          0x0000000000000000        0x0 c:/mounriver/mounriver_studio/toolchain/risc-v embedded gcc/bin/../lib/gcc/riscv-none-embed/8.2.0/../../../../riscv-none-embed/lib/rv32imac/ilp32\libnosys.a(isatty.o)
 .bss           0x0000000000000000        0x0 c:/mounriver/mounriver_studio/toolchain/risc-v embedded gcc/bin/../lib/gcc/riscv-none-embed/8.2.0/../../../../riscv-none-embed/lib/rv32imac/ilp32\libnosys.a(isatty.o)
 .text          0x0000000000000000        0x0 c:/mounriver/mounriver_studio/toolchain/risc-v embedded gcc/bin/../lib/gcc/riscv-none-embed/8.2.0/../../../../riscv-none-embed/lib/rv32imac/ilp32\libnosys.a(lseek.o)
 .data          0x0000000000000000        0x0 c:/mounriver/mounriver_studio/toolchain/risc-v embedded gcc/bin/../lib/gcc/riscv-none-embed/8.2.0/../../../../riscv-none-embed/lib/rv32imac/ilp32\libnosys.a(lseek.o)
 .bss           0x0000000000000000        0x0 c:/mounriver/mounriver_studio/toolchain/risc-v embedded gcc/bin/../lib/gcc/riscv-none-embed/8.2.0/../../../../riscv-none-embed/lib/rv32imac/ilp32\libnosys.a(lseek.o)
 .text          0x0000000000000000        0x0 c:/mounriver/mounriver_studio/toolchain/risc-v embedded gcc/bin/../lib/gcc/riscv-none-embed/8.2.0/../../../../riscv-none-embed/lib/rv32imac/ilp32\libnosys.a(read.o)
 .data          0x0000000000000000        0x0 c:/mounriver/mounriver_studio/toolchain/risc-v embedded gcc/bin/../lib/gcc/riscv-none-embed/8.2.0/../../../../riscv-none-embed/lib/rv32imac/ilp32\libnosys.a(read.o)
 .bss           0x0000000000000000        0x0 c:/mounriver/mounriver_studio/toolchain/risc-v embedded gcc/bin/../lib/gcc/riscv-none-embed/8.2.0/../../../../riscv-none-embed/lib/rv32imac/ilp32\libnosys.a(read.o)
 .text          0x0000000000000000        0x0 c:/mounriver/mounriver_studio/toolchain/risc-v embedded gcc/bin/../lib/gcc/riscv-none-embed/8.2.0/../../../../riscv-none-embed/lib/rv32imac/ilp32\libnosys.a(sbrk.o)
 .data          0x0000000000000000        0x0 c:/mounriver/mounriver_studio/toolchain/risc-v embedded gcc/bin/../lib/gcc/riscv-none-embed/8.2.0/../../../../riscv-none-embed/lib/rv32imac/ilp32\libnosys.a(sbrk.o)
 .bss           0x0000000000000000        0x0 c:/mounriver/mounriver_studio/toolchain/risc-v embedded gcc/bin/../lib/gcc/riscv-none-embed/8.2.0/../../../../riscv-none-embed/lib/rv32imac/ilp32\libnosys.a(sbrk.o)

Memory Configuration

Name             Origin             Length             Attributes
FLASH            0x0000000000000000 0x0000000000070000 xr
RAM              0x0000000020000000 0x0000000000008000 xrw
*default*        0x0000000000000000 0xffffffffffffffff

Linker script and memory map

LOAD ./src/utils/crc.o
LOAD ./src/utils/crc16.o
LOAD ./src/utils/log.o
LOAD ./src/utils/md5.o
LOAD ./src/modbus/coils.o
LOAD ./src/modbus/discrete_input.o
LOAD ./src/modbus/iregs.o
LOAD ./src/modbus/regs.o
LOAD ./src/Main.o
LOAD ./src/adc.o
LOAD ./src/appinfo.o
LOAD ./src/bmp.o
LOAD ./src/configtool.o
LOAD ./src/display.o
LOAD ./src/liblightmodbus-impl.o
LOAD ./src/modbus.o
LOAD ./src/oled.o
LOAD ./src/onewire.o
LOAD ./src/sensor.o
LOAD ./src/storage.o
LOAD ./src/uid.o
LOAD ./src/version.o
LOAD ./src/worktime.o
LOAD ./StdPeriphDriver/CH58x_adc.o
LOAD ./StdPeriphDriver/CH58x_clk.o
LOAD ./StdPeriphDriver/CH58x_flash.o
LOAD ./StdPeriphDriver/CH58x_gpio.o
LOAD ./StdPeriphDriver/CH58x_i2c.o
LOAD ./StdPeriphDriver/CH58x_pwr.o
LOAD ./StdPeriphDriver/CH58x_spi1.o
LOAD ./StdPeriphDriver/CH58x_sys.o
LOAD ./StdPeriphDriver/CH58x_timer0.o
LOAD ./StdPeriphDriver/CH58x_timer1.o
LOAD ./StdPeriphDriver/CH58x_timer2.o
LOAD ./StdPeriphDriver/CH58x_timer3.o
LOAD ./StdPeriphDriver/CH58x_uart0.o
LOAD ./StdPeriphDriver/CH58x_uart1.o
LOAD ./StdPeriphDriver/CH58x_uart2.o
LOAD ./StdPeriphDriver/CH58x_uart3.o
LOAD ./StdPeriphDriver/CH58x_usb2dev.o
LOAD ./StdPeriphDriver/CH58x_usb2hostBase.o
LOAD ./StdPeriphDriver/CH58x_usb2hostClass.o
LOAD ./Startup/startup_CH583.o
LOAD ./RVMSIS/core_riscv.o
LOAD ../StdPeriphDriver\libISP583.a
LOAD c:/mounriver/mounriver_studio/toolchain/risc-v embedded gcc/bin/../lib/gcc/riscv-none-embed/8.2.0/rv32imac/ilp32\libgcc.a
LOAD c:/mounriver/mounriver_studio/toolchain/risc-v embedded gcc/bin/../lib/gcc/riscv-none-embed/8.2.0/../../../../riscv-none-embed/lib/rv32imac/ilp32\libg_nano.a
LOAD c:/mounriver/mounriver_studio/toolchain/risc-v embedded gcc/bin/../lib/gcc/riscv-none-embed/8.2.0/../../../../riscv-none-embed/lib/rv32imac/ilp32\libc_nano.a
LOAD c:/mounriver/mounriver_studio/toolchain/risc-v embedded gcc/bin/../lib/gcc/riscv-none-embed/8.2.0/rv32imac/ilp32\libgcc.a
START GROUP
LOAD c:/mounriver/mounriver_studio/toolchain/risc-v embedded gcc/bin/../lib/gcc/riscv-none-embed/8.2.0/rv32imac/ilp32\libgcc.a
LOAD c:/mounriver/mounriver_studio/toolchain/risc-v embedded gcc/bin/../lib/gcc/riscv-none-embed/8.2.0/../../../../riscv-none-embed/lib/rv32imac/ilp32\libc_nano.a
LOAD c:/mounriver/mounriver_studio/toolchain/risc-v embedded gcc/bin/../lib/gcc/riscv-none-embed/8.2.0/../../../../riscv-none-embed/lib/rv32imac/ilp32\libnosys.a
END GROUP
START GROUP
LOAD c:/mounriver/mounriver_studio/toolchain/risc-v embedded gcc/bin/../lib/gcc/riscv-none-embed/8.2.0/rv32imac/ilp32\libgcc.a
LOAD c:/mounriver/mounriver_studio/toolchain/risc-v embedded gcc/bin/../lib/gcc/riscv-none-embed/8.2.0/../../../../riscv-none-embed/lib/rv32imac/ilp32\libc_nano.a
LOAD c:/mounriver/mounriver_studio/toolchain/risc-v embedded gcc/bin/../lib/gcc/riscv-none-embed/8.2.0/../../../../riscv-none-embed/lib/rv32imac/ilp32\libnosys.a
END GROUP

.init           0x0000000000000000        0x4
                0x0000000000000000                _sinit = .
                0x0000000000000000                . = ALIGN (0x4)
 *(SORT_NONE(.init))
 .init          0x0000000000000000        0x4 ./Startup/startup_CH583.o
                0x0000000000000000                _start
                0x0000000000000004                . = ALIGN (0x4)
                0x0000000000000004                _einit = .

.highcodelalign
                0x0000000000000004        0x0
                0x0000000000000004                . = ALIGN (0x4)
                0x0000000000000004                PROVIDE (_highcode_lma = .)

.highcode       0x0000000020000000      0x848 load address 0x0000000000000004
                0x0000000020000000                . = ALIGN (0x4)
                0x0000000020000000                PROVIDE (_highcode_vma_start = .)
 *(.vector)
 .vector        0x0000000020000000       0x90 ./Startup/startup_CH583.o
 *(SORT_NONE(.vector_handler))
 .vector_handler
                0x0000000020000090       0x36 ./Startup/startup_CH583.o
                0x0000000020000090                NMI_Handler
                0x0000000020000094                Ecall_M_Mode_Handler
                0x0000000020000096                Ecall_U_Mode_Handler
                0x0000000020000098                Break_Point_Handler
                0x000000002000009c                SW_Handler
                0x00000000200000a0                GPIOA_IRQHandler
                0x00000000200000a2                GPIOB_IRQHandler
                0x00000000200000a4                SPI0_IRQHandler
                0x00000000200000a6                BB_IRQHandler
                0x00000000200000a8                LLE_IRQHandler
                0x00000000200000aa                USB_IRQHandler
                0x00000000200000ac                USB2_IRQHandler
                0x00000000200000b0                TMR2_IRQHandler
                0x00000000200000b2                UART0_IRQHandler
                0x00000000200000b4                UART1_IRQHandler
                0x00000000200000b6                RTC_IRQHandler
                0x00000000200000b8                ADC_IRQHandler
                0x00000000200000ba                I2C_IRQHandler
                0x00000000200000bc                PWMX_IRQHandler
                0x00000000200000be                TMR3_IRQHandler
                0x00000000200000c0                UART2_IRQHandler
                0x00000000200000c4                WDOG_BAT_IRQHandler
 *(.highcode)
 .highcode      0x00000000200000c6      0x10a ./src/modbus.o
                0x00000000200000c6                TMR0_IRQHandler
                0x0000000020000168                UART3_IRQHandler
 .highcode      0x00000000200001d0       0x28 ./src/onewire.o
                0x00000000200001d0                TMR1_IRQHandler
 .highcode      0x00000000200001f8       0x22 ./src/worktime.o
                0x00000000200001f8                SysTick_Handler
 .highcode      0x000000002000021a      0x206 ./StdPeriphDriver/CH58x_sys.o
                0x000000002000021a                SetSysClock
                0x0000000020000374                SYS_ResetExecute
                0x00000000200003b0                HardFault_Handler
                0x00000000200003ea                mDelayuS
                0x00000000200003f8                mDelaymS
 .highcode      0x0000000020000420      0x426 ../StdPeriphDriver\libISP583.a(ISP583.o)
                0x0000000020000420                FLASH_ROM_BEG
                0x0000000020000432                FLASH_ROM_END
                0x0000000020000440                FLASH_ROM_IN
                0x000000002000044e                FLASH_ROM_OUT
                0x000000002000045c                FLASH_ROM_ADDR
                0x00000000200004a4                FLASH_ROM_WAIT
                0x00000000200004dc                FLASH_EEPROM_CMD
 *(.highcode.*)
                0x0000000020000848                . = ALIGN (0x4)
 *fill*         0x0000000020000846        0x2 
                0x0000000020000848                PROVIDE (_highcode_vma_end = .)

.text           0x0000000000000850     0xe938
                0x0000000000000850                . = ALIGN (0x4)
 *(SORT_NONE(.handle_reset))
 .handle_reset  0x0000000000000850       0xaa ./Startup/startup_CH583.o
                0x0000000000000850                handle_reset
 *(.text)
 .text          0x00000000000008fa       0xa8 c:/mounriver/mounriver_studio/toolchain/risc-v embedded gcc/bin/../lib/gcc/riscv-none-embed/8.2.0/../../../../riscv-none-embed/lib/rv32imac/ilp32\libg_nano.a(lib_a-memset.o)
                0x00000000000008fa                memset
 *(.text.*)
 .text.reflected_data
                0x00000000000009a2       0xbc ./src/utils/crc.o
                0x00000000000009a2                reflected_data
 .text.check_crc4
                0x0000000000000a5e       0x98 ./src/utils/crc.o
                0x0000000000000a5e                check_crc4
 .text.check_crc5
                0x0000000000000af6       0x98 ./src/utils/crc.o
                0x0000000000000af6                check_crc5
 .text.check_crc6
                0x0000000000000b8e       0x98 ./src/utils/crc.o
                0x0000000000000b8e                check_crc6
 .text.check_crc7
                0x0000000000000c26       0x98 ./src/utils/crc.o
                0x0000000000000c26                check_crc7
 .text.check_crc8
                0x0000000000000cbe       0x76 ./src/utils/crc.o
                0x0000000000000cbe                check_crc8
 .text.check_crc16
                0x0000000000000d34       0x7c ./src/utils/crc.o
                0x0000000000000d34                check_crc16
 .text.check_crc32
                0x0000000000000db0       0x6e ./src/utils/crc.o
                0x0000000000000db0                check_crc32
 .text.crc_check
                0x0000000000000e1e       0xe6 ./src/utils/crc.o
                0x0000000000000e1e                crc_check
 .text.log_buffer_hex
                0x0000000000000f04       0xd6 ./src/utils/log.o
                0x0000000000000f04                log_buffer_hex
 .text.modbus_coil_callback
                0x0000000000000fda       0x62 ./src/modbus/coils.o
                0x0000000000000fda                modbus_coil_callback
 .text.mb_di_init
                0x000000000000103c       0x16 ./src/modbus/discrete_input.o
                0x000000000000103c                mb_di_init
 .text.modbus_di_update
                0x0000000000001052       0x4e ./src/modbus/discrete_input.o
                0x0000000000001052                modbus_di_update
 .text.modbus_di_callback
                0x00000000000010a0       0x9c ./src/modbus/discrete_input.o
                0x00000000000010a0                modbus_di_callback
 .text.modbus_ireg_update
                0x000000000000113c       0x14 ./src/modbus/iregs.o
                0x000000000000113c                modbus_ireg_update
 .text.modbus_ireg_callback
                0x0000000000001150       0x40 ./src/modbus/iregs.o
                0x0000000000001150                modbus_ireg_callback
 .text.modbus_iregs_init
                0x0000000000001190        0xa ./src/modbus/iregs.o
                0x0000000000001190                modbus_iregs_init
 .text.modbus_reg_update
                0x000000000000119a       0x38 ./src/modbus/regs.o
                0x000000000000119a                modbus_reg_update
 .text.modbus_reg_get
                0x00000000000011d2       0x42 ./src/modbus/regs.o
                0x00000000000011d2                modbus_reg_get
 .text.modbus_reg_callback
                0x0000000000001214      0x154 ./src/modbus/regs.o
                0x0000000000001214                modbus_reg_callback
 .text.modbus_reg_update_uid
                0x0000000000001368       0x24 ./src/modbus/regs.o
                0x0000000000001368                modbus_reg_update_uid
 .text.modbus_regs_init
                0x000000000000138c       0x36 ./src/modbus/regs.o
                0x000000000000138c                modbus_regs_init
 .text.uuid_dump
                0x00000000000013c2       0x68 ./src/Main.o
                0x00000000000013c2                uuid_dump
 .text.reset_dump
                0x000000000000142a       0xa6 ./src/Main.o
                0x000000000000142a                reset_dump
 .text.startup.main
                0x00000000000014d0       0xea ./src/Main.o
                0x00000000000014d0                main
 .text.adc_init
                0x00000000000015ba       0x1a ./src/adc.o
                0x00000000000015ba                adc_init
 .text.adc_convert_caclute
                0x00000000000015d4      0x304 ./src/adc.o
                0x00000000000015d4                adc_convert_caclute
 .text.appinfo_get
                0x00000000000018d8        0x6 ./src/appinfo.o
                0x00000000000018d8                appinfo_get
 .text.cfg_save_item
                0x00000000000018de       0xd0 ./src/configtool.o
 .text.cfg_get_mb_uart
                0x00000000000019ae       0x42 ./src/configtool.o
                0x00000000000019ae                cfg_get_mb_uart
 .text.cfg_update_mb_uart
                0x00000000000019f0       0x64 ./src/configtool.o
                0x00000000000019f0                cfg_update_mb_uart
 .text.cfg_get_mb_addr
                0x0000000000001a54       0x40 ./src/configtool.o
                0x0000000000001a54                cfg_get_mb_addr
 .text.cfg_init
                0x0000000000001a94       0xe6 ./src/configtool.o
                0x0000000000001a94                cfg_init
 .text.display_init
                0x0000000000001b7a       0x20 ./src/display.o
                0x0000000000001b7a                display_init
 .text.modbusBufferInit
                0x0000000000001b9a       0x12 ./src/liblightmodbus-impl.o
                0x0000000000001b9a                modbusBufferInit
 .text.modbusBufferAllocateADU
                0x0000000000001bac       0x50 ./src/liblightmodbus-impl.o
                0x0000000000001bac                modbusBufferAllocateADU
 .text.modbusBufferFree
                0x0000000000001bfc        0x6 ./src/liblightmodbus-impl.o
                0x0000000000001bfc                modbusBufferFree
 .text.modbusSlaveAllocateResponse
                0x0000000000001c02        0x6 ./src/liblightmodbus-impl.o
 .text.modbusCRC
                0x0000000000001c08       0x40 ./src/liblightmodbus-impl.o
                0x0000000000001c08                modbusCRC
 .text.modbusSlaveInit
                0x0000000000001c48       0x14 ./src/liblightmodbus-impl.o
                0x0000000000001c48                modbusSlaveInit
 .text.modbusSlaveDestroy
                0x0000000000001c5c        0x6 ./src/liblightmodbus-impl.o
                0x0000000000001c5c                modbusSlaveDestroy
 .text.modbusBuildException
                0x0000000000001c62       0x44 ./src/liblightmodbus-impl.o
                0x0000000000001c62                modbusBuildException
 .text.modbusParseRequest01020304
                0x0000000000001ca6      0x1cc ./src/liblightmodbus-impl.o
                0x0000000000001ca6                modbusParseRequest01020304
 .text.modbusParseRequest0506
                0x0000000000001e72      0x11a ./src/liblightmodbus-impl.o
                0x0000000000001e72                modbusParseRequest0506
 .text.modbusParseRequest1516
                0x0000000000001f8c      0x1d0 ./src/liblightmodbus-impl.o
                0x0000000000001f8c                modbusParseRequest1516
 .text.modbusParseRequest22
                0x000000000000215c      0x15e ./src/liblightmodbus-impl.o
                0x000000000000215c                modbusParseRequest22
 .text.modbusParseRequest
                0x00000000000022ba       0x38 ./src/liblightmodbus-impl.o
                0x00000000000022ba                modbusParseRequest
 .text.modbusParseRequestRTU
                0x00000000000022f2       0xf0 ./src/liblightmodbus-impl.o
                0x00000000000022f2                modbusParseRequestRTU
 .text.modbusErrorStr
                0x00000000000023e2       0x20 ./src/liblightmodbus-impl.o
                0x00000000000023e2                modbusErrorStr
 .text.modbus_slave_allocator
                0x0000000000002402       0x22 ./src/modbus.o
 .text.register_callback
                0x0000000000002424       0x38 ./src/modbus.o
                0x0000000000002424                register_callback
 .text.modbus_t05_cnt
                0x000000000000245c       0x42 ./src/modbus.o
 .text.slave_recv
                0x000000000000249e       0xa6 ./src/modbus.o
                0x000000000000249e                slave_recv
 .text.modbus_slave_uart_init
                0x0000000000002544       0x56 ./src/modbus.o
                0x0000000000002544                modbus_slave_uart_init
 .text.modbus_slave_uart_send
                0x000000000000259a       0x72 ./src/modbus.o
                0x000000000000259a                modbus_slave_uart_send
 .text.modbus_slave_init
                0x000000000000260c       0xd0 ./src/modbus.o
                0x000000000000260c                modbus_slave_init
 .text.modbus_sa_ctrl
                0x00000000000026dc       0x26 ./src/modbus.o
                0x00000000000026dc                modbus_sa_ctrl
 .text.modbus_init
                0x0000000000002702       0x62 ./src/modbus.o
                0x0000000000002702                modbus_init
 .text.modbus_frame_check
                0x0000000000002764       0xc6 ./src/modbus.o
                0x0000000000002764                modbus_frame_check
 .text.modbus_run
                0x000000000000282a       0x36 ./src/modbus.o
                0x000000000000282a                modbus_run
 .text.OLED_WR_Byte
                0x0000000000002860       0x84 ./src/oled.o
                0x0000000000002860                OLED_WR_Byte
 .text.OLED_DisPlay_On
                0x00000000000028e4       0x1e ./src/oled.o
                0x00000000000028e4                OLED_DisPlay_On
 .text.OLED_Refresh
                0x0000000000002902       0x74 ./src/oled.o
                0x0000000000002902                OLED_Refresh
 .text.OLED_Clear
                0x0000000000002976       0x30 ./src/oled.o
                0x0000000000002976                OLED_Clear
 .text.OLED_DrawPoint
                0x00000000000029a6       0x4a ./src/oled.o
                0x00000000000029a6                OLED_DrawPoint
 .text.OLED_ShowChar
                0x00000000000029f0      0x14c ./src/oled.o
                0x00000000000029f0                OLED_ShowChar
 .text.OLED_ShowString
                0x0000000000002b3c       0x8e ./src/oled.o
                0x0000000000002b3c                OLED_ShowString
 .text.OLED_ShowNum
                0x0000000000002bca       0x98 ./src/oled.o
                0x0000000000002bca                OLED_ShowNum
 .text.OLED_ShowChinese
                0x0000000000002c62      0x13a ./src/oled.o
                0x0000000000002c62                OLED_ShowChinese
 .text.OLED_io_init
                0x0000000000002d9c       0x64 ./src/oled.o
                0x0000000000002d9c                OLED_io_init
 .text.OLED_Init
                0x0000000000002e00      0x156 ./src/oled.o
                0x0000000000002e00                OLED_Init
 .text.oled_seneor_flag
                0x0000000000002f56       0xbe ./src/oled.o
                0x0000000000002f56                oled_seneor_flag
 .text.ow_delay_us
                0x0000000000003014       0x46 ./src/onewire.o
 .text.check_ack
                0x000000000000305a       0x7e ./src/onewire.o
                0x000000000000305a                check_ack
 .text.onewire_reset
                0x00000000000030d8       0x40 ./src/onewire.o
                0x00000000000030d8                onewire_reset
 .text.onewire_resetcheck
                0x0000000000003118       0x30 ./src/onewire.o
                0x0000000000003118                onewire_resetcheck
 .text.onewire_init
                0x0000000000003148       0x44 ./src/onewire.o
                0x0000000000003148                onewire_init
 .text.onewire_writebit
                0x000000000000318c       0x5e ./src/onewire.o
                0x000000000000318c                onewire_writebit
 .text.onewire_writebyte
                0x00000000000031ea       0x26 ./src/onewire.o
                0x00000000000031ea                onewire_writebyte
 .text.onewire_readbit
                0x0000000000003210       0x74 ./src/onewire.o
                0x0000000000003210                onewire_readbit
 .text.onewire_read
                0x0000000000003284       0x2e ./src/onewire.o
                0x0000000000003284                onewire_read
 .text.onewire_read2bits
                0x00000000000032b2       0x20 ./src/onewire.o
                0x00000000000032b2                onewire_read2bits
 .text.cfbcfgtocaprange
                0x00000000000032d2       0x64 ./src/onewire.o
                0x00000000000032d2                cfbcfgtocaprange
 .text.coscfgtocapoffset
                0x0000000000003336       0x46 ./src/onewire.o
                0x0000000000003336                coscfgtocapoffset
 .text.captocoscfg
                0x000000000000337c       0x66 ./src/onewire.o
                0x000000000000337c                captocoscfg
 .text.caprangetocfbcfg
                0x00000000000033e2       0x8c ./src/onewire.o
                0x00000000000033e2                caprangetocfbcfg
 .text.mdc02_outputtocap
                0x000000000000346e       0x7a ./src/onewire.o
                0x000000000000346e                mdc02_outputtocap
 .text.onewire_crc8
                0x00000000000034e8       0x36 ./src/onewire.o
                0x00000000000034e8                onewire_crc8
 .text.Search_ROM
                0x000000000000351e      0x13e ./src/onewire.o
                0x000000000000351e                Search_ROM
 .text.onewire_find_alldevice
                0x000000000000365c       0x94 ./src/onewire.o
                0x000000000000365c                onewire_find_alldevice
 .text.send_matchrom
                0x00000000000036f0       0x4c ./src/onewire.o
                0x00000000000036f0                send_matchrom
 .text.mdc02_writeparameters_skiprom
                0x000000000000373c       0x38 ./src/onewire.o
                0x000000000000373c                mdc02_writeparameters_skiprom
 .text.mdc02_readparameters_skiprom
                0x0000000000003774       0x38 ./src/onewire.o
                0x0000000000003774                mdc02_readparameters_skiprom
 .text.readcfbconfig
                0x00000000000037ac       0x42 ./src/onewire.o
                0x00000000000037ac                readcfbconfig
 .text.getcfg_caprange
                0x00000000000037ee       0x20 ./src/onewire.o
                0x00000000000037ee                getcfg_caprange
 .text.readcosconfig
                0x000000000000380e       0x54 ./src/onewire.o
                0x000000000000380e                readcosconfig
 .text.getcfg_capoffset
                0x0000000000003862       0x20 ./src/onewire.o
                0x0000000000003862                getcfg_capoffset
 .text.readcapconfigure
                0x0000000000003882       0x20 ./src/onewire.o
                0x0000000000003882                readcapconfigure
 .text.setcapchannel
                0x00000000000038a2       0x50 ./src/onewire.o
                0x00000000000038a2                setcapchannel
 .text.writecosconfig
                0x00000000000038f2       0x5e ./src/onewire.o
                0x00000000000038f2                writecosconfig
 .text.mdc02_capconfigureoffset
                0x0000000000003950       0x44 ./src/onewire.o
                0x0000000000003950                mdc02_capconfigureoffset
 .text.writecfbconfig
                0x0000000000003994       0x54 ./src/onewire.o
                0x0000000000003994                writecfbconfig
 .text.mdc02_capconfigurefs
                0x00000000000039e8       0x32 ./src/onewire.o
                0x00000000000039e8                mdc02_capconfigurefs
 .text.mdc02_capconfigurerange
                0x0000000000003a1a       0x4a ./src/onewire.o
                0x0000000000003a1a                mdc02_capconfigurerange
 .text.mdc02_writescratchpad_skiprom
                0x0000000000003a64       0x3a ./src/onewire.o
                0x0000000000003a64                mdc02_writescratchpad_skiprom
 .text.convertcap
                0x0000000000003a9e       0x1e ./src/onewire.o
                0x0000000000003a9e                convertcap
 .text.converttemp
                0x0000000000003abc       0x1e ./src/onewire.o
                0x0000000000003abc                converttemp
 .text.convert_tempcap1
                0x0000000000003ada       0x1c ./src/onewire.o
                0x0000000000003ada                convert_tempcap1
 .text.mdc02_readscratchpad_skiprom
                0x0000000000003af6       0x3a ./src/onewire.o
                0x0000000000003af6                mdc02_readscratchpad_skiprom
 .text.readstatusconfig
                0x0000000000003b30       0x4e ./src/onewire.o
                0x0000000000003b30                readstatusconfig
 .text.setconfig
                0x0000000000003b7e       0x5c ./src/onewire.o
                0x0000000000003b7e                setconfig
 .text.readtempcap1
                0x0000000000003bda       0x5e ./src/onewire.o
                0x0000000000003bda                readtempcap1
 .text.mdc02_readc2c3c4_skiprom
                0x0000000000003c38       0x3a ./src/onewire.o
                0x0000000000003c38                mdc02_readc2c3c4_skiprom
 .text.readcapc2c3c4
                0x0000000000003c72       0x3a ./src/onewire.o
                0x0000000000003c72                readcapc2c3c4
 .text.romid_crc
                0x0000000000003cac       0x9a ./src/onewire.o
                0x0000000000003cac                romid_crc
 .text.read_tempwaiting
                0x0000000000003d46       0x48 ./src/onewire.o
                0x0000000000003d46                read_tempwaiting
 .text.read_temp
                0x0000000000003d8e       0x90 ./src/onewire.o
                0x0000000000003d8e                read_temp
 .text.mdc02_range
                0x0000000000003e1e       0x96 ./src/onewire.o
                0x0000000000003e1e                mdc02_range
 .text.read_sampling_mode
                0x0000000000003eb4       0x2a ./src/onewire.o
                0x0000000000003eb4                read_sampling_mode
 .text.dev_type_choose_function
                0x0000000000003ede      0x266 ./src/onewire.o
                0x0000000000003ede                dev_type_choose_function
 .text.mb_reg_after_write
                0x0000000000004144       0xbc ./src/sensor.o
 .text.mb_init  0x0000000000004200       0x76 ./src/sensor.o
                0x0000000000004200                mb_init
 .text.sensor_init
                0x0000000000004276       0x28 ./src/sensor.o
                0x0000000000004276                sensor_init
 .text.sensor_run
                0x000000000000429e       0x4e ./src/sensor.o
                0x000000000000429e                sensor_run
 .text.st_page_status_str
                0x00000000000042ec       0x4e ./src/storage.o
 .text.st_item_verify
                0x000000000000433a       0x3a ./src/storage.o
 .text.st_page_read
                0x0000000000004374       0x72 ./src/storage.o
 .text.st_page_erase
                0x00000000000043e6       0x96 ./src/storage.o
 .text.st_page_status_update.constprop.12
                0x000000000000447c       0xde ./src/storage.o
 .text.st_page_get_freesize.constprop.13
                0x000000000000455a       0x4a ./src/storage.o
 .text.st_first_page.constprop.11
                0x00000000000045a4       0x3c ./src/storage.o
 .text.st_page_write
                0x00000000000045e0       0x88 ./src/storage.o
 .text.st_page_write_item.constprop.10
                0x0000000000004668      0x150 ./src/storage.o
 .text.st_delete_item_with_loc
                0x00000000000047b8      0x180 ./src/storage.o
                0x00000000000047b8                st_delete_item_with_loc
 .text.st_find_item
                0x0000000000004938      0x274 ./src/storage.o
 .text.st_init  0x0000000000004bac      0x37e ./src/storage.o
                0x0000000000004bac                st_init
 .text.st_write_item
                0x0000000000004f2a      0x434 ./src/storage.o
                0x0000000000004f2a                st_write_item
 .text.st_read_item
                0x000000000000535e       0x82 ./src/storage.o
                0x000000000000535e                st_read_item
 .text.get_uid  0x00000000000053e0       0x32 ./src/uid.o
                0x00000000000053e0                get_uid
 .text.worktime_init
                0x0000000000005412       0x3a ./src/worktime.o
                0x0000000000005412                worktime_init
 .text.worktime_get
                0x000000000000544c        0xa ./src/worktime.o
                0x000000000000544c                worktime_get
 .text.worktime_since
                0x0000000000005456       0x18 ./src/worktime.o
                0x0000000000005456                worktime_since
 .text.ADC_DataCalib_Rough
                0x000000000000546e       0x92 ./StdPeriphDriver/CH58x_adc.o
                0x000000000000546e                ADC_DataCalib_Rough
 .text.ADC_ExtSingleChSampInit
                0x0000000000005500       0x24 ./StdPeriphDriver/CH58x_adc.o
                0x0000000000005500                ADC_ExtSingleChSampInit
 .text.ADC_ExcutSingleConver
                0x0000000000005524       0x20 ./StdPeriphDriver/CH58x_adc.o
                0x0000000000005524                ADC_ExcutSingleConver
 .text.GPIOA_ModeCfg
                0x0000000000005544       0xa6 ./StdPeriphDriver/CH58x_gpio.o
                0x0000000000005544                GPIOA_ModeCfg
 .text.GPIOB_ModeCfg
                0x00000000000055ea       0xa6 ./StdPeriphDriver/CH58x_gpio.o
                0x00000000000055ea                GPIOB_ModeCfg
 .text.GetSysClock
                0x0000000000005690       0x42 ./StdPeriphDriver/CH58x_sys.o
                0x0000000000005690                GetSysClock
 .text._write   0x00000000000056d2       0x28 ./StdPeriphDriver/CH58x_sys.o
                0x00000000000056d2                _write
 .text.TMR0_TimerInit
                0x00000000000056fa       0x14 ./StdPeriphDriver/CH58x_timer0.o
                0x00000000000056fa                TMR0_TimerInit
 .text.TMR1_TimerInit
                0x000000000000570e       0x16 ./StdPeriphDriver/CH58x_timer1.o
                0x000000000000570e                TMR1_TimerInit
 .text.UART1_BaudRateCfg
                0x0000000000005724       0x32 ./StdPeriphDriver/CH58x_uart1.o
                0x0000000000005724                UART1_BaudRateCfg
 .text.UART1_DefInit
                0x0000000000005756       0x34 ./StdPeriphDriver/CH58x_uart1.o
                0x0000000000005756                UART1_DefInit
 .text.UART3_BaudRateCfg
                0x000000000000578a       0x32 ./StdPeriphDriver/CH58x_uart3.o
                0x000000000000578a                UART3_BaudRateCfg
 .text.UART3_DefInit
                0x00000000000057bc       0x34 ./StdPeriphDriver/CH58x_uart3.o
                0x00000000000057bc                UART3_DefInit
 .text.UART3_ByteTrigCfg
                0x00000000000057f0       0x1a ./StdPeriphDriver/CH58x_uart3.o
                0x00000000000057f0                UART3_ByteTrigCfg
 .text.UART3_INTCfg
                0x000000000000580a       0x2a ./StdPeriphDriver/CH58x_uart3.o
                0x000000000000580a                UART3_INTCfg
 .text.UART3_SendString
                0x0000000000005834       0x28 ./StdPeriphDriver/CH58x_uart3.o
                0x0000000000005834                UART3_SendString
 .text.__udivdi3
                0x000000000000585c      0x398 c:/mounriver/mounriver_studio/toolchain/risc-v embedded gcc/bin/../lib/gcc/riscv-none-embed/8.2.0/rv32imac/ilp32\libgcc.a(_udivdi3.o)
                0x000000000000585c                __udivdi3
 .text.__adddf3
                0x0000000000005bf4      0x730 c:/mounriver/mounriver_studio/toolchain/risc-v embedded gcc/bin/../lib/gcc/riscv-none-embed/8.2.0/rv32imac/ilp32\libgcc.a(adddf3.o)
                0x0000000000005bf4                __adddf3
 .text.__divdf3
                0x0000000000006324      0x5b4 c:/mounriver/mounriver_studio/toolchain/risc-v embedded gcc/bin/../lib/gcc/riscv-none-embed/8.2.0/rv32imac/ilp32\libgcc.a(divdf3.o)
                0x0000000000006324                __divdf3
 .text.__muldf3
                0x00000000000068d8      0x4b8 c:/mounriver/mounriver_studio/toolchain/risc-v embedded gcc/bin/../lib/gcc/riscv-none-embed/8.2.0/rv32imac/ilp32\libgcc.a(muldf3.o)
                0x00000000000068d8                __muldf3
 .text.__subdf3
                0x0000000000006d90      0x73e c:/mounriver/mounriver_studio/toolchain/risc-v embedded gcc/bin/../lib/gcc/riscv-none-embed/8.2.0/rv32imac/ilp32\libgcc.a(subdf3.o)
                0x0000000000006d90                __subdf3
 .text.__floatsidf
                0x00000000000074ce       0x72 c:/mounriver/mounriver_studio/toolchain/risc-v embedded gcc/bin/../lib/gcc/riscv-none-embed/8.2.0/rv32imac/ilp32\libgcc.a(floatsidf.o)
                0x00000000000074ce                __floatsidf
 .text.__addsf3
                0x0000000000007540      0x36a c:/mounriver/mounriver_studio/toolchain/risc-v embedded gcc/bin/../lib/gcc/riscv-none-embed/8.2.0/rv32imac/ilp32\libgcc.a(addsf3.o)
                0x0000000000007540                __addsf3
 .text.__divsf3
                0x00000000000078aa      0x2b2 c:/mounriver/mounriver_studio/toolchain/risc-v embedded gcc/bin/../lib/gcc/riscv-none-embed/8.2.0/rv32imac/ilp32\libgcc.a(divsf3.o)
                0x00000000000078aa                __divsf3
 .text.__gesf2  0x0000000000007b5c       0x86 c:/mounriver/mounriver_studio/toolchain/risc-v embedded gcc/bin/../lib/gcc/riscv-none-embed/8.2.0/rv32imac/ilp32\libgcc.a(gesf2.o)
                0x0000000000007b5c                __gesf2
                0x0000000000007b5c                __gtsf2
 .text.__lesf2  0x0000000000007be2       0x8c c:/mounriver/mounriver_studio/toolchain/risc-v embedded gcc/bin/../lib/gcc/riscv-none-embed/8.2.0/rv32imac/ilp32\libgcc.a(lesf2.o)
                0x0000000000007be2                __ltsf2
                0x0000000000007be2                __lesf2
 .text.__mulsf3
                0x0000000000007c6e      0x294 c:/mounriver/mounriver_studio/toolchain/risc-v embedded gcc/bin/../lib/gcc/riscv-none-embed/8.2.0/rv32imac/ilp32\libgcc.a(mulsf3.o)
                0x0000000000007c6e                __mulsf3
 .text.__subsf3
                0x0000000000007f02      0x388 c:/mounriver/mounriver_studio/toolchain/risc-v embedded gcc/bin/../lib/gcc/riscv-none-embed/8.2.0/rv32imac/ilp32\libgcc.a(subsf3.o)
                0x0000000000007f02                __subsf3
 .text.__fixunssfsi
                0x000000000000828a       0x56 c:/mounriver/mounriver_studio/toolchain/risc-v embedded gcc/bin/../lib/gcc/riscv-none-embed/8.2.0/rv32imac/ilp32\libgcc.a(fixunssfsi.o)
                0x000000000000828a                __fixunssfsi
 .text.__floatsisf
                0x00000000000082e0       0xc6 c:/mounriver/mounriver_studio/toolchain/risc-v embedded gcc/bin/../lib/gcc/riscv-none-embed/8.2.0/rv32imac/ilp32\libgcc.a(floatsisf.o)
                0x00000000000082e0                __floatsisf
 .text.__extendsfdf2
                0x00000000000083a6       0xac c:/mounriver/mounriver_studio/toolchain/risc-v embedded gcc/bin/../lib/gcc/riscv-none-embed/8.2.0/rv32imac/ilp32\libgcc.a(extendsfdf2.o)
                0x00000000000083a6                __extendsfdf2
 .text.__truncdfsf2
                0x0000000000008452      0x16a c:/mounriver/mounriver_studio/toolchain/risc-v embedded gcc/bin/../lib/gcc/riscv-none-embed/8.2.0/rv32imac/ilp32\libgcc.a(truncdfsf2.o)
                0x0000000000008452                __truncdfsf2
 .text.__clzsi2
                0x00000000000085bc       0x76 c:/mounriver/mounriver_studio/toolchain/risc-v embedded gcc/bin/../lib/gcc/riscv-none-embed/8.2.0/rv32imac/ilp32\libgcc.a(_clzsi2.o)
                0x00000000000085bc                __clzsi2
 .text.malloc   0x0000000000008632        0xa c:/mounriver/mounriver_studio/toolchain/risc-v embedded gcc/bin/../lib/gcc/riscv-none-embed/8.2.0/../../../../riscv-none-embed/lib/rv32imac/ilp32\libg_nano.a(lib_a-malloc.o)
                0x0000000000008632                malloc
 .text.__ascii_mbtowc
                0x000000000000863c       0x3a c:/mounriver/mounriver_studio/toolchain/risc-v embedded gcc/bin/../lib/gcc/riscv-none-embed/8.2.0/../../../../riscv-none-embed/lib/rv32imac/ilp32\libg_nano.a(lib_a-mbtowc_r.o)
                0x000000000000863c                __ascii_mbtowc
 .text.memcmp   0x0000000000008676       0x26 c:/mounriver/mounriver_studio/toolchain/risc-v embedded gcc/bin/../lib/gcc/riscv-none-embed/8.2.0/../../../../riscv-none-embed/lib/rv32imac/ilp32\libg_nano.a(lib_a-memcmp.o)
                0x0000000000008676                memcmp
 .text.memcpy   0x000000000000869c       0xb6 c:/mounriver/mounriver_studio/toolchain/risc-v embedded gcc/bin/../lib/gcc/riscv-none-embed/8.2.0/../../../../riscv-none-embed/lib/rv32imac/ilp32\libg_nano.a(lib_a-memcpy.o)
                0x000000000000869c                memcpy
 .text._free_r  0x0000000000008752       0xa8 c:/mounriver/mounriver_studio/toolchain/risc-v embedded gcc/bin/../lib/gcc/riscv-none-embed/8.2.0/../../../../riscv-none-embed/lib/rv32imac/ilp32\libg_nano.a(lib_a-nano-freer.o)
                0x0000000000008752                _free_r
 .text._malloc_r
                0x00000000000087fa       0xda c:/mounriver/mounriver_studio/toolchain/risc-v embedded gcc/bin/../lib/gcc/riscv-none-embed/8.2.0/../../../../riscv-none-embed/lib/rv32imac/ilp32\libg_nano.a(lib_a-nano-mallocr.o)
                0x00000000000087fa                _malloc_r
 .text.__cvt    0x00000000000088d4       0xee c:/mounriver/mounriver_studio/toolchain/risc-v embedded gcc/bin/../lib/gcc/riscv-none-embed/8.2.0/../../../../riscv-none-embed/lib/rv32imac/ilp32\libg_nano.a(lib_a-nano-vfprintf_float.o)
                0x00000000000088d4                __cvt
 .text.__exponent
                0x00000000000089c2       0x8c c:/mounriver/mounriver_studio/toolchain/risc-v embedded gcc/bin/../lib/gcc/riscv-none-embed/8.2.0/../../../../riscv-none-embed/lib/rv32imac/ilp32\libg_nano.a(lib_a-nano-vfprintf_float.o)
                0x00000000000089c2                __exponent
 .text._printf_float
                0x0000000000008a4e      0x4c4 c:/mounriver/mounriver_studio/toolchain/risc-v embedded gcc/bin/../lib/gcc/riscv-none-embed/8.2.0/../../../../riscv-none-embed/lib/rv32imac/ilp32\libg_nano.a(lib_a-nano-vfprintf_float.o)
                0x0000000000008a4e                _printf_float
 .text._printf_common
                0x0000000000008f12      0x10c c:/mounriver/mounriver_studio/toolchain/risc-v embedded gcc/bin/../lib/gcc/riscv-none-embed/8.2.0/../../../../riscv-none-embed/lib/rv32imac/ilp32\libg_nano.a(lib_a-nano-vfprintf_i.o)
                0x0000000000008f12                _printf_common
 .text._printf_i
                0x000000000000901e      0x2ac c:/mounriver/mounriver_studio/toolchain/risc-v embedded gcc/bin/../lib/gcc/riscv-none-embed/8.2.0/../../../../riscv-none-embed/lib/rv32imac/ilp32\libg_nano.a(lib_a-nano-vfprintf_i.o)
                0x000000000000901e                _printf_i
 .text.printf   0x00000000000092ca       0x42 c:/mounriver/mounriver_studio/toolchain/risc-v embedded gcc/bin/../lib/gcc/riscv-none-embed/8.2.0/../../../../riscv-none-embed/lib/rv32imac/ilp32\libg_nano.a(lib_a-printf.o)
                0x00000000000092ca                iprintf
                0x00000000000092ca                printf
 .text._puts_r  0x000000000000930c       0xde c:/mounriver/mounriver_studio/toolchain/risc-v embedded gcc/bin/../lib/gcc/riscv-none-embed/8.2.0/../../../../riscv-none-embed/lib/rv32imac/ilp32\libg_nano.a(lib_a-puts.o)
                0x000000000000930c                _puts_r
 .text.puts     0x00000000000093ea        0xc c:/mounriver/mounriver_studio/toolchain/risc-v embedded gcc/bin/../lib/gcc/riscv-none-embed/8.2.0/../../../../riscv-none-embed/lib/rv32imac/ilp32\libg_nano.a(lib_a-puts.o)
                0x00000000000093ea                puts
 .text._sbrk_r  0x00000000000093f6       0x2a c:/mounriver/mounriver_studio/toolchain/risc-v embedded gcc/bin/../lib/gcc/riscv-none-embed/8.2.0/../../../../riscv-none-embed/lib/rv32imac/ilp32\libg_nano.a(lib_a-sbrkr.o)
                0x00000000000093f6                _sbrk_r
 .text.sprintf  0x0000000000009420       0x46 c:/mounriver/mounriver_studio/toolchain/risc-v embedded gcc/bin/../lib/gcc/riscv-none-embed/8.2.0/../../../../riscv-none-embed/lib/rv32imac/ilp32\libg_nano.a(lib_a-sprintf.o)
                0x0000000000009420                siprintf
                0x0000000000009420                sprintf
 .text.strlen   0x0000000000009466       0x12 c:/mounriver/mounriver_studio/toolchain/risc-v embedded gcc/bin/../lib/gcc/riscv-none-embed/8.2.0/../../../../riscv-none-embed/lib/rv32imac/ilp32\libg_nano.a(lib_a-strlen.o)
                0x0000000000009466                strlen
 .text.__swbuf_r
                0x0000000000009478       0xc6 c:/mounriver/mounriver_studio/toolchain/risc-v embedded gcc/bin/../lib/gcc/riscv-none-embed/8.2.0/../../../../riscv-none-embed/lib/rv32imac/ilp32\libg_nano.a(lib_a-wbuf.o)
                0x0000000000009478                __swbuf_r
 .text.__ascii_wctomb
                0x000000000000953e       0x20 c:/mounriver/mounriver_studio/toolchain/risc-v embedded gcc/bin/../lib/gcc/riscv-none-embed/8.2.0/../../../../riscv-none-embed/lib/rv32imac/ilp32\libg_nano.a(lib_a-wctomb_r.o)
                0x000000000000953e                __ascii_wctomb
 .text.__swsetup_r
                0x000000000000955e      0x112 c:/mounriver/mounriver_studio/toolchain/risc-v embedded gcc/bin/../lib/gcc/riscv-none-embed/8.2.0/../../../../riscv-none-embed/lib/rv32imac/ilp32\libg_nano.a(lib_a-wsetup.o)
                0x000000000000955e                __swsetup_r
 .text.quorem   0x0000000000009670      0x13a c:/mounriver/mounriver_studio/toolchain/risc-v embedded gcc/bin/../lib/gcc/riscv-none-embed/8.2.0/../../../../riscv-none-embed/lib/rv32imac/ilp32\libg_nano.a(lib_a-dtoa.o)
 .text._dtoa_r  0x00000000000097aa      0xc1e c:/mounriver/mounriver_studio/toolchain/risc-v embedded gcc/bin/../lib/gcc/riscv-none-embed/8.2.0/../../../../riscv-none-embed/lib/rv32imac/ilp32\libg_nano.a(lib_a-dtoa.o)
                0x00000000000097aa                _dtoa_r
 .text.__sflush_r
                0x000000000000a3c8      0x13e c:/mounriver/mounriver_studio/toolchain/risc-v embedded gcc/bin/../lib/gcc/riscv-none-embed/8.2.0/../../../../riscv-none-embed/lib/rv32imac/ilp32\libg_nano.a(lib_a-fflush.o)
                0x000000000000a3c8                __sflush_r
 .text._fflush_r
                0x000000000000a506       0x66 c:/mounriver/mounriver_studio/toolchain/risc-v embedded gcc/bin/../lib/gcc/riscv-none-embed/8.2.0/../../../../riscv-none-embed/lib/rv32imac/ilp32\libg_nano.a(lib_a-fflush.o)
                0x000000000000a506                _fflush_r
 .text.std      0x000000000000a56c       0x6a c:/mounriver/mounriver_studio/toolchain/risc-v embedded gcc/bin/../lib/gcc/riscv-none-embed/8.2.0/../../../../riscv-none-embed/lib/rv32imac/ilp32\libg_nano.a(lib_a-findfp.o)
 .text._cleanup_r
                0x000000000000a5d6        0xa c:/mounriver/mounriver_studio/toolchain/risc-v embedded gcc/bin/../lib/gcc/riscv-none-embed/8.2.0/../../../../riscv-none-embed/lib/rv32imac/ilp32\libg_nano.a(lib_a-findfp.o)
                0x000000000000a5d6                _cleanup_r
 .text.__sfmoreglue
                0x000000000000a5e0       0x48 c:/mounriver/mounriver_studio/toolchain/risc-v embedded gcc/bin/../lib/gcc/riscv-none-embed/8.2.0/../../../../riscv-none-embed/lib/rv32imac/ilp32\libg_nano.a(lib_a-findfp.o)
                0x000000000000a5e0                __sfmoreglue
 .text.__sinit  0x000000000000a628       0x70 c:/mounriver/mounriver_studio/toolchain/risc-v embedded gcc/bin/../lib/gcc/riscv-none-embed/8.2.0/../../../../riscv-none-embed/lib/rv32imac/ilp32\libg_nano.a(lib_a-findfp.o)
                0x000000000000a628                __sinit
 .text.__sfp    0x000000000000a698       0xa4 c:/mounriver/mounriver_studio/toolchain/risc-v embedded gcc/bin/../lib/gcc/riscv-none-embed/8.2.0/../../../../riscv-none-embed/lib/rv32imac/ilp32\libg_nano.a(lib_a-findfp.o)
                0x000000000000a698                __sfp
 .text._fwalk_reent
                0x000000000000a73c       0x6c c:/mounriver/mounriver_studio/toolchain/risc-v embedded gcc/bin/../lib/gcc/riscv-none-embed/8.2.0/../../../../riscv-none-embed/lib/rv32imac/ilp32\libg_nano.a(lib_a-fwalk.o)
                0x000000000000a73c                _fwalk_reent
 .text._localeconv_r
                0x000000000000a7a8       0x18 c:/mounriver/mounriver_studio/toolchain/risc-v embedded gcc/bin/../lib/gcc/riscv-none-embed/8.2.0/../../../../riscv-none-embed/lib/rv32imac/ilp32\libg_nano.a(lib_a-localeconv.o)
                0x000000000000a7a8                _localeconv_r
 .text.__swhatbuf_r
                0x000000000000a7c0       0x5a c:/mounriver/mounriver_studio/toolchain/risc-v embedded gcc/bin/../lib/gcc/riscv-none-embed/8.2.0/../../../../riscv-none-embed/lib/rv32imac/ilp32\libg_nano.a(lib_a-makebuf.o)
                0x000000000000a7c0                __swhatbuf_r
 .text.__smakebuf_r
                0x000000000000a81a       0xa2 c:/mounriver/mounriver_studio/toolchain/risc-v embedded gcc/bin/../lib/gcc/riscv-none-embed/8.2.0/../../../../riscv-none-embed/lib/rv32imac/ilp32\libg_nano.a(lib_a-makebuf.o)
                0x000000000000a81a                __smakebuf_r
 .text.memchr   0x000000000000a8bc       0x1a c:/mounriver/mounriver_studio/toolchain/risc-v embedded gcc/bin/../lib/gcc/riscv-none-embed/8.2.0/../../../../riscv-none-embed/lib/rv32imac/ilp32\libg_nano.a(lib_a-memchr.o)
                0x000000000000a8bc                memchr
 .text.__malloc_lock
                0x000000000000a8d6        0x2 c:/mounriver/mounriver_studio/toolchain/risc-v embedded gcc/bin/../lib/gcc/riscv-none-embed/8.2.0/../../../../riscv-none-embed/lib/rv32imac/ilp32\libg_nano.a(lib_a-mlock.o)
                0x000000000000a8d6                __malloc_lock
 .text.__malloc_unlock
                0x000000000000a8d8        0x2 c:/mounriver/mounriver_studio/toolchain/risc-v embedded gcc/bin/../lib/gcc/riscv-none-embed/8.2.0/../../../../riscv-none-embed/lib/rv32imac/ilp32\libg_nano.a(lib_a-mlock.o)
                0x000000000000a8d8                __malloc_unlock
 .text._Balloc  0x000000000000a8da       0x88 c:/mounriver/mounriver_studio/toolchain/risc-v embedded gcc/bin/../lib/gcc/riscv-none-embed/8.2.0/../../../../riscv-none-embed/lib/rv32imac/ilp32\libg_nano.a(lib_a-mprec.o)
                0x000000000000a8da                _Balloc
 .text._Bfree   0x000000000000a962       0x44 c:/mounriver/mounriver_studio/toolchain/risc-v embedded gcc/bin/../lib/gcc/riscv-none-embed/8.2.0/../../../../riscv-none-embed/lib/rv32imac/ilp32\libg_nano.a(lib_a-mprec.o)
                0x000000000000a962                _Bfree
 .text.__multadd
                0x000000000000a9a6       0x98 c:/mounriver/mounriver_studio/toolchain/risc-v embedded gcc/bin/../lib/gcc/riscv-none-embed/8.2.0/../../../../riscv-none-embed/lib/rv32imac/ilp32\libg_nano.a(lib_a-mprec.o)
                0x000000000000a9a6                __multadd
 .text.__hi0bits
                0x000000000000aa3e       0x46 c:/mounriver/mounriver_studio/toolchain/risc-v embedded gcc/bin/../lib/gcc/riscv-none-embed/8.2.0/../../../../riscv-none-embed/lib/rv32imac/ilp32\libg_nano.a(lib_a-mprec.o)
                0x000000000000aa3e                __hi0bits
 .text.__lo0bits
                0x000000000000aa84       0x6a c:/mounriver/mounriver_studio/toolchain/risc-v embedded gcc/bin/../lib/gcc/riscv-none-embed/8.2.0/../../../../riscv-none-embed/lib/rv32imac/ilp32\libg_nano.a(lib_a-mprec.o)
                0x000000000000aa84                __lo0bits
 .text.__i2b    0x000000000000aaee       0x1c c:/mounriver/mounriver_studio/toolchain/risc-v embedded gcc/bin/../lib/gcc/riscv-none-embed/8.2.0/../../../../riscv-none-embed/lib/rv32imac/ilp32\libg_nano.a(lib_a-mprec.o)
                0x000000000000aaee                __i2b
 .text.__multiply
                0x000000000000ab0a      0x144 c:/mounriver/mounriver_studio/toolchain/risc-v embedded gcc/bin/../lib/gcc/riscv-none-embed/8.2.0/../../../../riscv-none-embed/lib/rv32imac/ilp32\libg_nano.a(lib_a-mprec.o)
                0x000000000000ab0a                __multiply
 .text.__pow5mult
                0x000000000000ac4e       0xbe c:/mounriver/mounriver_studio/toolchain/risc-v embedded gcc/bin/../lib/gcc/riscv-none-embed/8.2.0/../../../../riscv-none-embed/lib/rv32imac/ilp32\libg_nano.a(lib_a-mprec.o)
                0x000000000000ac4e                __pow5mult
 .text.__lshift
                0x000000000000ad0c       0xce c:/mounriver/mounriver_studio/toolchain/risc-v embedded gcc/bin/../lib/gcc/riscv-none-embed/8.2.0/../../../../riscv-none-embed/lib/rv32imac/ilp32\libg_nano.a(lib_a-mprec.o)
                0x000000000000ad0c                __lshift
 .text.__mcmp   0x000000000000adda       0x32 c:/mounriver/mounriver_studio/toolchain/risc-v embedded gcc/bin/../lib/gcc/riscv-none-embed/8.2.0/../../../../riscv-none-embed/lib/rv32imac/ilp32\libg_nano.a(lib_a-mprec.o)
                0x000000000000adda                __mcmp
 .text.__mdiff  0x000000000000ae0c       0xf2 c:/mounriver/mounriver_studio/toolchain/risc-v embedded gcc/bin/../lib/gcc/riscv-none-embed/8.2.0/../../../../riscv-none-embed/lib/rv32imac/ilp32\libg_nano.a(lib_a-mprec.o)
                0x000000000000ae0c                __mdiff
 .text.__d2b    0x000000000000aefe       0xd4 c:/mounriver/mounriver_studio/toolchain/risc-v embedded gcc/bin/../lib/gcc/riscv-none-embed/8.2.0/../../../../riscv-none-embed/lib/rv32imac/ilp32\libg_nano.a(lib_a-mprec.o)
                0x000000000000aefe                __d2b
 .text._calloc_r
                0x000000000000afd2       0x28 c:/mounriver/mounriver_studio/toolchain/risc-v embedded gcc/bin/../lib/gcc/riscv-none-embed/8.2.0/../../../../riscv-none-embed/lib/rv32imac/ilp32\libg_nano.a(lib_a-nano-callocr.o)
                0x000000000000afd2                _calloc_r
 .text._realloc_r
                0x000000000000affa       0x5a c:/mounriver/mounriver_studio/toolchain/risc-v embedded gcc/bin/../lib/gcc/riscv-none-embed/8.2.0/../../../../riscv-none-embed/lib/rv32imac/ilp32\libg_nano.a(lib_a-nano-reallocr.o)
                0x000000000000affa                _realloc_r
 .text.__ssputs_r
                0x000000000000b054       0xee c:/mounriver/mounriver_studio/toolchain/risc-v embedded gcc/bin/../lib/gcc/riscv-none-embed/8.2.0/../../../../riscv-none-embed/lib/rv32imac/ilp32\libg_nano.a(lib_a-nano-svfprintf.o)
                0x000000000000b054                __ssputs_r
 .text._svfprintf_r
                0x000000000000b142      0x27e c:/mounriver/mounriver_studio/toolchain/risc-v embedded gcc/bin/../lib/gcc/riscv-none-embed/8.2.0/../../../../riscv-none-embed/lib/rv32imac/ilp32\libg_nano.a(lib_a-nano-svfprintf.o)
                0x000000000000b142                _svfiprintf_r
                0x000000000000b142                _svfprintf_r
 .text.__sfputc_r
                0x000000000000b3c0       0x2a c:/mounriver/mounriver_studio/toolchain/risc-v embedded gcc/bin/../lib/gcc/riscv-none-embed/8.2.0/../../../../riscv-none-embed/lib/rv32imac/ilp32\libg_nano.a(lib_a-nano-vfprintf.o)
 .text.__sfputs_r
                0x000000000000b3ea       0x44 c:/mounriver/mounriver_studio/toolchain/risc-v embedded gcc/bin/../lib/gcc/riscv-none-embed/8.2.0/../../../../riscv-none-embed/lib/rv32imac/ilp32\libg_nano.a(lib_a-nano-vfprintf.o)
                0x000000000000b3ea                __sfputs_r
 .text._vfprintf_r
                0x000000000000b42e      0x2a0 c:/mounriver/mounriver_studio/toolchain/risc-v embedded gcc/bin/../lib/gcc/riscv-none-embed/8.2.0/../../../../riscv-none-embed/lib/rv32imac/ilp32\libg_nano.a(lib_a-nano-vfprintf.o)
                0x000000000000b42e                _vfprintf_r
                0x000000000000b42e                _vfiprintf_r
 .text.__sread  0x000000000000b6ce       0x30 c:/mounriver/mounriver_studio/toolchain/risc-v embedded gcc/bin/../lib/gcc/riscv-none-embed/8.2.0/../../../../riscv-none-embed/lib/rv32imac/ilp32\libg_nano.a(lib_a-stdio.o)
                0x000000000000b6ce                __sread
 .text.__swrite
                0x000000000000b6fe       0x4e c:/mounriver/mounriver_studio/toolchain/risc-v embedded gcc/bin/../lib/gcc/riscv-none-embed/8.2.0/../../../../riscv-none-embed/lib/rv32imac/ilp32\libg_nano.a(lib_a-stdio.o)
                0x000000000000b6fe                __swrite
 .text.__sseek  0x000000000000b74c       0x36 c:/mounriver/mounriver_studio/toolchain/risc-v embedded gcc/bin/../lib/gcc/riscv-none-embed/8.2.0/../../../../riscv-none-embed/lib/rv32imac/ilp32\libg_nano.a(lib_a-stdio.o)
                0x000000000000b74c                __sseek
 .text.__sclose
                0x000000000000b782        0x6 c:/mounriver/mounriver_studio/toolchain/risc-v embedded gcc/bin/../lib/gcc/riscv-none-embed/8.2.0/../../../../riscv-none-embed/lib/rv32imac/ilp32\libg_nano.a(lib_a-stdio.o)
                0x000000000000b782                __sclose
 .text._write_r
                0x000000000000b788       0x2e c:/mounriver/mounriver_studio/toolchain/risc-v embedded gcc/bin/../lib/gcc/riscv-none-embed/8.2.0/../../../../riscv-none-embed/lib/rv32imac/ilp32\libg_nano.a(lib_a-writer.o)
                0x000000000000b788                _write_r
 .text._close_r
                0x000000000000b7b6       0x28 c:/mounriver/mounriver_studio/toolchain/risc-v embedded gcc/bin/../lib/gcc/riscv-none-embed/8.2.0/../../../../riscv-none-embed/lib/rv32imac/ilp32\libg_nano.a(lib_a-closer.o)
                0x000000000000b7b6                _close_r
 .text._fstat_r
                0x000000000000b7de       0x2a c:/mounriver/mounriver_studio/toolchain/risc-v embedded gcc/bin/../lib/gcc/riscv-none-embed/8.2.0/../../../../riscv-none-embed/lib/rv32imac/ilp32\libg_nano.a(lib_a-fstatr.o)
                0x000000000000b7de                _fstat_r
 .text._isatty_r
                0x000000000000b808       0x28 c:/mounriver/mounriver_studio/toolchain/risc-v embedded gcc/bin/../lib/gcc/riscv-none-embed/8.2.0/../../../../riscv-none-embed/lib/rv32imac/ilp32\libg_nano.a(lib_a-isattyr.o)
                0x000000000000b808                _isatty_r
 .text._lseek_r
                0x000000000000b830       0x2c c:/mounriver/mounriver_studio/toolchain/risc-v embedded gcc/bin/../lib/gcc/riscv-none-embed/8.2.0/../../../../riscv-none-embed/lib/rv32imac/ilp32\libg_nano.a(lib_a-lseekr.o)
                0x000000000000b830                _lseek_r
 .text.memmove  0x000000000000b85c       0x4a c:/mounriver/mounriver_studio/toolchain/risc-v embedded gcc/bin/../lib/gcc/riscv-none-embed/8.2.0/../../../../riscv-none-embed/lib/rv32imac/ilp32\libg_nano.a(lib_a-memmove.o)
                0x000000000000b85c                memmove
 .text._malloc_usable_size_r
                0x000000000000b8a6       0x14 c:/mounriver/mounriver_studio/toolchain/risc-v embedded gcc/bin/../lib/gcc/riscv-none-embed/8.2.0/../../../../riscv-none-embed/lib/rv32imac/ilp32\libg_nano.a(lib_a-nano-msizer.o)
                0x000000000000b8a6                _malloc_usable_size_r
 .text._read_r  0x000000000000b8ba       0x2c c:/mounriver/mounriver_studio/toolchain/risc-v embedded gcc/bin/../lib/gcc/riscv-none-embed/8.2.0/../../../../riscv-none-embed/lib/rv32imac/ilp32\libg_nano.a(lib_a-readr.o)
                0x000000000000b8ba                _read_r
 .text.__eqdf2  0x000000000000b8e6       0x6a c:/mounriver/mounriver_studio/toolchain/risc-v embedded gcc/bin/../lib/gcc/riscv-none-embed/8.2.0/rv32imac/ilp32\libgcc.a(eqdf2.o)
                0x000000000000b8e6                __nedf2
                0x000000000000b8e6                __eqdf2
 .text.__gedf2  0x000000000000b950       0xae c:/mounriver/mounriver_studio/toolchain/risc-v embedded gcc/bin/../lib/gcc/riscv-none-embed/8.2.0/rv32imac/ilp32\libgcc.a(gedf2.o)
                0x000000000000b950                __gedf2
                0x000000000000b950                __gtdf2
 .text.__ledf2  0x000000000000b9fe       0xb6 c:/mounriver/mounriver_studio/toolchain/risc-v embedded gcc/bin/../lib/gcc/riscv-none-embed/8.2.0/rv32imac/ilp32\libgcc.a(ledf2.o)
                0x000000000000b9fe                __ledf2
                0x000000000000b9fe                __ltdf2
 .text.__unorddf2
                0x000000000000bab4       0x3c c:/mounriver/mounriver_studio/toolchain/risc-v embedded gcc/bin/../lib/gcc/riscv-none-embed/8.2.0/rv32imac/ilp32\libgcc.a(unorddf2.o)
                0x000000000000bab4                __unorddf2
 .text.__fixdfsi
                0x000000000000baf0       0x68 c:/mounriver/mounriver_studio/toolchain/risc-v embedded gcc/bin/../lib/gcc/riscv-none-embed/8.2.0/rv32imac/ilp32\libgcc.a(fixdfsi.o)
                0x000000000000baf0                __fixdfsi
 .text.__floatunsidf
                0x000000000000bb58       0x68 c:/mounriver/mounriver_studio/toolchain/risc-v embedded gcc/bin/../lib/gcc/riscv-none-embed/8.2.0/rv32imac/ilp32\libgcc.a(floatunsidf.o)
                0x000000000000bb58                __floatunsidf
 .text.__trunctfdf2
                0x000000000000bbc0      0x21e c:/mounriver/mounriver_studio/toolchain/risc-v embedded gcc/bin/../lib/gcc/riscv-none-embed/8.2.0/rv32imac/ilp32\libgcc.a(trunctfdf2.o)
                0x000000000000bbc0                __trunctfdf2
 .text._close   0x000000000000bdde        0xc c:/mounriver/mounriver_studio/toolchain/risc-v embedded gcc/bin/../lib/gcc/riscv-none-embed/8.2.0/../../../../riscv-none-embed/lib/rv32imac/ilp32\libnosys.a(close.o)
                0x000000000000bdde                _close
 .text._fstat   0x000000000000bdea        0xc c:/mounriver/mounriver_studio/toolchain/risc-v embedded gcc/bin/../lib/gcc/riscv-none-embed/8.2.0/../../../../riscv-none-embed/lib/rv32imac/ilp32\libnosys.a(fstat.o)
                0x000000000000bdea                _fstat
 .text._isatty  0x000000000000bdf6        0xc c:/mounriver/mounriver_studio/toolchain/risc-v embedded gcc/bin/../lib/gcc/riscv-none-embed/8.2.0/../../../../riscv-none-embed/lib/rv32imac/ilp32\libnosys.a(isatty.o)
                0x000000000000bdf6                _isatty
 .text._lseek   0x000000000000be02        0xc c:/mounriver/mounriver_studio/toolchain/risc-v embedded gcc/bin/../lib/gcc/riscv-none-embed/8.2.0/../../../../riscv-none-embed/lib/rv32imac/ilp32\libnosys.a(lseek.o)
                0x000000000000be02                _lseek
 .text._read    0x000000000000be0e        0xc c:/mounriver/mounriver_studio/toolchain/risc-v embedded gcc/bin/../lib/gcc/riscv-none-embed/8.2.0/../../../../riscv-none-embed/lib/rv32imac/ilp32\libnosys.a(read.o)
                0x000000000000be0e                _read
 .text._sbrk    0x000000000000be1a       0x20 c:/mounriver/mounriver_studio/toolchain/risc-v embedded gcc/bin/../lib/gcc/riscv-none-embed/8.2.0/../../../../riscv-none-embed/lib/rv32imac/ilp32\libnosys.a(sbrk.o)
                0x000000000000be1a                _sbrk
 *(.rodata)
 *fill*         0x000000000000be3a        0x2 
 .rodata        0x000000000000be3c       0x14 ./src/modbus.o
 .rodata        0x000000000000be50       0x14 ./src/storage.o
 *(.rodata*)
 .rodata.log_buffer_hex.str1.4
                0x000000000000be64       0x43 ./src/utils/log.o
 *fill*         0x000000000000bea7        0x1 
 .rodata.__FUNCTION__.4497
                0x000000000000bea8       0x13 ./src/modbus/discrete_input.o
 *fill*         0x000000000000bebb        0x1 
 .rodata.modbus_di_callback.str1.4
                0x000000000000bebc        0xf ./src/modbus/discrete_input.o
 *fill*         0x000000000000becb        0x1 
 .rodata.mb_reg_segs
                0x000000000000becc       0x30 ./src/modbus/regs.o
 .rodata.reset_dump
                0x000000000000befc       0x1c ./src/Main.o
 .rodata.main.str1.4
                0x000000000000bf18       0x25 ./src/Main.o
 *fill*         0x000000000000bf3d        0x3 
 .rodata.reset_dump.str1.4
                0x000000000000bf40       0x6a ./src/Main.o
 *fill*         0x000000000000bfaa        0x2 
 .rodata.uuid_dump.str1.4
                0x000000000000bfac        0xa ./src/Main.o
                                         0x16 (size before relaxing)
 *fill*         0x000000000000bfb6        0x2 
 .rodata.adc_convert_caclute.cst4
                0x000000000000bfb8       0x28 ./src/adc.o
 *fill*         0x000000000000bfe0        0x0 
 .rodata.adc_convert_caclute.cst8
                0x000000000000bfe0        0x8 ./src/adc.o
 .rodata.adc_convert_caclute.str1.4
                0x000000000000bfe8       0xb1 ./src/adc.o
 *fill*         0x000000000000c099        0x3 
 .rodata.__FUNCTION__.4086
                0x000000000000c09c       0x10 ./src/configtool.o
 .rodata.__FUNCTION__.4091
                0x000000000000c0ac       0x13 ./src/configtool.o
 *fill*         0x000000000000c0bf        0x1 
 .rodata.__FUNCTION__.4108
                0x000000000000c0c0       0x10 ./src/configtool.o
 .rodata.cfg_get_mb_uart.str1.4
                0x000000000000c0d0       0x14 ./src/configtool.o
 .rodata.cfg_init.str1.4
                0x000000000000c0e4       0x5d ./src/configtool.o
 *fill*         0x000000000000c141        0x3 
 .rodata.cfg_save_item.str1.4
                0x000000000000c144       0x3b ./src/configtool.o
 *fill*         0x000000000000c17f        0x1 
 .rodata.CSWTCH.34
                0x000000000000c180       0x34 ./src/liblightmodbus-impl.o
 .rodata.modbusErrorStr.str1.4
                0x000000000000c1b4       0x16 ./src/liblightmodbus-impl.o
 *fill*         0x000000000000c1ca        0x2 
 .rodata.str1.4
                0x000000000000c1cc      0x2df ./src/liblightmodbus-impl.o
 *fill*         0x000000000000c4ab        0x1 
 .rodata.__FUNCTION__.4585
                0x000000000000c4ac       0x17 ./src/modbus.o
 *fill*         0x000000000000c4c3        0x1 
 .rodata.modbus_frame_check.str1.4
                0x000000000000c4c4       0x41 ./src/modbus.o
 *fill*         0x000000000000c505        0x3 
 .rodata.modbus_init.str1.4
                0x000000000000c508       0x1b ./src/modbus.o
 *fill*         0x000000000000c523        0x1 
 .rodata.modbus_slave_init.str1.4
                0x000000000000c524       0x2d ./src/modbus.o
 *fill*         0x000000000000c551        0x3 
 .rodata.modbus_slave_uart_send.str1.4
                0x000000000000c554        0xf ./src/modbus.o
 *fill*         0x000000000000c563        0x1 
 .rodata.Hzk1   0x000000000000c564       0xa0 ./src/oled.o
                0x000000000000c564                Hzk1
 .rodata.Hzk2   0x000000000000c604       0x48 ./src/oled.o
                0x000000000000c604                Hzk2
 .rodata.Hzk3   0x000000000000c64c       0x80 ./src/oled.o
                0x000000000000c64c                Hzk3
 .rodata.Hzk4   0x000000000000c6cc      0x200 ./src/oled.o
                0x000000000000c6cc                Hzk4
 .rodata.asc2_0806
                0x000000000000c8cc      0x228 ./src/oled.o
                0x000000000000c8cc                asc2_0806
 .rodata.asc2_1206
                0x000000000000caf4      0x474 ./src/oled.o
                0x000000000000caf4                asc2_1206
 .rodata.asc2_1608
                0x000000000000cf68      0x5f0 ./src/oled.o
                0x000000000000cf68                asc2_1608
 .rodata.asc2_2412
                0x000000000000d558      0xd5c ./src/oled.o
                0x000000000000d558                asc2_2412
 .rodata.CFB    0x000000000000e2b4       0x1c ./src/onewire.o
 .rodata.COS_Factor
                0x000000000000e2d0       0x20 ./src/onewire.o
 .rodata.MY18B20_outputtotemp.cst4
                0x000000000000e2f0        0x4 ./src/onewire.o
 .rodata.caprangetocfbcfg.cst8
                0x000000000000e2f0        0x8 ./src/onewire.o
 .rodata.cfbcfgtocaprange.cst4
                0x000000000000e2f8        0x4 ./src/onewire.o
 *fill*         0x000000000000e2fc        0x4 
 .rodata.cfbcfgtocaprange.cst8
                0x000000000000e300        0x8 ./src/onewire.o
 .rodata.check_ack.str1.4
                0x000000000000e308       0x50 ./src/onewire.o
 .rodata.dev_type_choose_function.cst4
                0x000000000000e358        0x4 ./src/onewire.o
                                          0x8 (size before relaxing)
 .rodata.dev_type_choose_function.str1.4
                0x000000000000e35c       0xa3 ./src/onewire.o
 *fill*         0x000000000000e3ff        0x1 
 .rodata.mdc02_capconfigurefs.cst8
                0x000000000000e400        0x8 ./src/onewire.o
 .rodata.mdc02_capconfigureoffset.cst4
                0x000000000000e408        0x4 ./src/onewire.o
 .rodata.mdc02_capconfigurerange.cst4
                0x000000000000e40c        0x4 ./src/onewire.o
 *fill*         0x000000000000e40c        0x4 
 .rodata.mdc02_outputtocap.cst8
                0x000000000000e410       0x10 ./src/onewire.o
 .rodata.mdc02_outputtotemp.cst8
                0x000000000000e420       0x10 ./src/onewire.o
 .rodata.mdc02_range.cst4
                0x000000000000e430        0x8 ./src/onewire.o
 .rodata.mdc02_range.str1.4
                0x000000000000e438       0x20 ./src/onewire.o
 .rodata.onewire_find_alldevice.str1.4
                0x000000000000e458       0x35 ./src/onewire.o
                                         0x3a (size before relaxing)
 *fill*         0x000000000000e48d        0x3 
 .rodata.onewire_resetcheck.str1.4
                0x000000000000e490        0x7 ./src/onewire.o
 *fill*         0x000000000000e497        0x1 
 .rodata.read_temp.str1.4
                0x000000000000e498       0x2c ./src/onewire.o
 .rodata.readcapc2c3c4.str1.4
                0x000000000000e4c4        0x7 ./src/onewire.o
 *fill*         0x000000000000e4cb        0x1 
 .rodata.romid_crc.str1.4
                0x000000000000e4cc       0x64 ./src/onewire.o
 .rodata.mb_reg_after_write.str1.4
                0x000000000000e530       0x26 ./src/sensor.o
 *fill*         0x000000000000e556        0x2 
 .rodata.__FUNCTION__.4144
                0x000000000000e558        0xb ./src/storage.o
 *fill*         0x000000000000e563        0x1 
 .rodata.__FUNCTION__.4169
                0x000000000000e564       0x18 ./src/storage.o
 .rodata.st_delete_item_with_loc.str1.4
                0x000000000000e57c      0x11b ./src/storage.o
 *fill*         0x000000000000e697        0x1 
 .rodata.st_find_item.str1.4
                0x000000000000e698       0xd4 ./src/storage.o
 .rodata.st_init.str1.4
                0x000000000000e76c      0x1c8 ./src/storage.o
 .rodata.st_page_erase.str1.4
                0x000000000000e934       0x32 ./src/storage.o
 *fill*         0x000000000000e966        0x2 
 .rodata.st_page_read.str1.4
                0x000000000000e968       0x56 ./src/storage.o
 *fill*         0x000000000000e9be        0x2 
 .rodata.st_page_status_str.str1.4
                0x000000000000e9c0       0x2b ./src/storage.o
 *fill*         0x000000000000e9eb        0x1 
 .rodata.st_page_status_update.constprop.12.str1.4
                0x000000000000e9ec       0x28 ./src/storage.o
 .rodata.st_page_write_item.constprop.10.str1.4
                0x000000000000ea14       0xc0 ./src/storage.o
 .rodata.st_write_item.str1.4
                0x000000000000ead4      0x11c ./src/storage.o
 .rodata.GPIOA_ModeCfg
                0x000000000000ebf0       0x14 ./StdPeriphDriver/CH58x_gpio.o
 .rodata.GPIOB_ModeCfg
                0x000000000000ec04       0x14 ./StdPeriphDriver/CH58x_gpio.o
 .rodata.__divdf3
                0x000000000000ec18       0x40 c:/mounriver/mounriver_studio/toolchain/risc-v embedded gcc/bin/../lib/gcc/riscv-none-embed/8.2.0/rv32imac/ilp32\libgcc.a(divdf3.o)
 .rodata.__muldf3
                0x000000000000ec58       0x40 c:/mounriver/mounriver_studio/toolchain/risc-v embedded gcc/bin/../lib/gcc/riscv-none-embed/8.2.0/rv32imac/ilp32\libgcc.a(muldf3.o)
 .rodata.__divsf3
                0x000000000000ec98       0x80 c:/mounriver/mounriver_studio/toolchain/risc-v embedded gcc/bin/../lib/gcc/riscv-none-embed/8.2.0/rv32imac/ilp32\libgcc.a(divsf3.o)
 .rodata.__mulsf3
                0x000000000000ed18       0x40 c:/mounriver/mounriver_studio/toolchain/risc-v embedded gcc/bin/../lib/gcc/riscv-none-embed/8.2.0/rv32imac/ilp32\libgcc.a(mulsf3.o)
 .rodata.__clz_tab
                0x000000000000ed58      0x100 c:/mounriver/mounriver_studio/toolchain/risc-v embedded gcc/bin/../lib/gcc/riscv-none-embed/8.2.0/rv32imac/ilp32\libgcc.a(_clz.o)
                0x000000000000ed58                __clz_tab
 .rodata._setlocale_r.str1.4
                0x000000000000ee58        0xa c:/mounriver/mounriver_studio/toolchain/risc-v embedded gcc/bin/../lib/gcc/riscv-none-embed/8.2.0/../../../../riscv-none-embed/lib/rv32imac/ilp32\libg_nano.a(lib_a-locale.o)
                                          0xd (size before relaxing)
 *fill*         0x000000000000ee62        0x2 
 .rodata.str1.4
                0x000000000000ee64        0x2 c:/mounriver/mounriver_studio/toolchain/risc-v embedded gcc/bin/../lib/gcc/riscv-none-embed/8.2.0/../../../../riscv-none-embed/lib/rv32imac/ilp32\libg_nano.a(lib_a-locale.o)
 *fill*         0x000000000000ee66        0x2 
 .rodata._printf_float.cst8
                0x000000000000ee68        0x8 c:/mounriver/mounriver_studio/toolchain/risc-v embedded gcc/bin/../lib/gcc/riscv-none-embed/8.2.0/../../../../riscv-none-embed/lib/rv32imac/ilp32\libg_nano.a(lib_a-nano-vfprintf_float.o)
 .rodata._printf_float.str1.4
                0x000000000000ee70       0x12 c:/mounriver/mounriver_studio/toolchain/risc-v embedded gcc/bin/../lib/gcc/riscv-none-embed/8.2.0/../../../../riscv-none-embed/lib/rv32imac/ilp32\libg_nano.a(lib_a-nano-vfprintf_float.o)
 *fill*         0x000000000000ee82        0x2 
 .rodata._printf_i.str1.4
                0x000000000000ee84       0x25 c:/mounriver/mounriver_studio/toolchain/risc-v embedded gcc/bin/../lib/gcc/riscv-none-embed/8.2.0/../../../../riscv-none-embed/lib/rv32imac/ilp32\libg_nano.a(lib_a-nano-vfprintf_i.o)
 *fill*         0x000000000000eea9        0x3 
 .rodata._ctype_
                0x000000000000eeac      0x101 c:/mounriver/mounriver_studio/toolchain/risc-v embedded gcc/bin/../lib/gcc/riscv-none-embed/8.2.0/../../../../riscv-none-embed/lib/rv32imac/ilp32\libg_nano.a(lib_a-ctype_.o)
                0x000000000000eeac                _ctype_
 *fill*         0x000000000000efad        0x3 
 .rodata._dtoa_r.cst8
                0x000000000000efb0       0x40 c:/mounriver/mounriver_studio/toolchain/risc-v embedded gcc/bin/../lib/gcc/riscv-none-embed/8.2.0/../../../../riscv-none-embed/lib/rv32imac/ilp32\libg_nano.a(lib_a-dtoa.o)
                                         0x48 (size before relaxing)
 .rodata._dtoa_r.str1.4
                0x000000000000eff0       0x10 c:/mounriver/mounriver_studio/toolchain/risc-v embedded gcc/bin/../lib/gcc/riscv-none-embed/8.2.0/../../../../riscv-none-embed/lib/rv32imac/ilp32\libg_nano.a(lib_a-dtoa.o)
                                         0x12 (size before relaxing)
 .rodata.__sf_fake_stderr
                0x000000000000f000       0x20 c:/mounriver/mounriver_studio/toolchain/risc-v embedded gcc/bin/../lib/gcc/riscv-none-embed/8.2.0/../../../../riscv-none-embed/lib/rv32imac/ilp32\libg_nano.a(lib_a-findfp.o)
                0x000000000000f000                __sf_fake_stderr
 .rodata.__sf_fake_stdin
                0x000000000000f020       0x20 c:/mounriver/mounriver_studio/toolchain/risc-v embedded gcc/bin/../lib/gcc/riscv-none-embed/8.2.0/../../../../riscv-none-embed/lib/rv32imac/ilp32\libg_nano.a(lib_a-findfp.o)
                0x000000000000f020                __sf_fake_stdin
 .rodata.__sf_fake_stdout
                0x000000000000f040       0x20 c:/mounriver/mounriver_studio/toolchain/risc-v embedded gcc/bin/../lib/gcc/riscv-none-embed/8.2.0/../../../../riscv-none-embed/lib/rv32imac/ilp32\libg_nano.a(lib_a-findfp.o)
                0x000000000000f040                __sf_fake_stdout
 .rodata.__mprec_bigtens
                0x000000000000f060       0x28 c:/mounriver/mounriver_studio/toolchain/risc-v embedded gcc/bin/../lib/gcc/riscv-none-embed/8.2.0/../../../../riscv-none-embed/lib/rv32imac/ilp32\libg_nano.a(lib_a-mprec.o)
                0x000000000000f060                __mprec_bigtens
 .rodata.__mprec_tens
                0x000000000000f088       0xc8 c:/mounriver/mounriver_studio/toolchain/risc-v embedded gcc/bin/../lib/gcc/riscv-none-embed/8.2.0/../../../../riscv-none-embed/lib/rv32imac/ilp32\libg_nano.a(lib_a-mprec.o)
                0x000000000000f088                __mprec_tens
 .rodata.p05.3319
                0x000000000000f150        0xc c:/mounriver/mounriver_studio/toolchain/risc-v embedded gcc/bin/../lib/gcc/riscv-none-embed/8.2.0/../../../../riscv-none-embed/lib/rv32imac/ilp32\libg_nano.a(lib_a-mprec.o)
 .rodata._svfprintf_r.str1.4
                0x000000000000f15c       0x14 c:/mounriver/mounriver_studio/toolchain/risc-v embedded gcc/bin/../lib/gcc/riscv-none-embed/8.2.0/../../../../riscv-none-embed/lib/rv32imac/ilp32\libg_nano.a(lib_a-nano-svfprintf.o)
                                         0x13 (size before relaxing)
 .rodata._vfprintf_r.str1.4
                0x000000000000f170       0x13 c:/mounriver/mounriver_studio/toolchain/risc-v embedded gcc/bin/../lib/gcc/riscv-none-embed/8.2.0/../../../../riscv-none-embed/lib/rv32imac/ilp32\libg_nano.a(lib_a-nano-vfprintf.o)
 *(.sdata2.*)
 .sdata2.CSWTCH.31
                0x000000000000f170        0x4 ./src/liblightmodbus-impl.o
 .sdata2.CSWTCH.32
                0x000000000000f174        0x8 ./src/liblightmodbus-impl.o
 .sdata2.CSWTCH.33
                0x000000000000f17c        0x4 ./src/liblightmodbus-impl.o
 .sdata2.modbusSlaveDefaultFunctionCount
                0x000000000000f180        0x1 ./src/liblightmodbus-impl.o
                0x000000000000f180                modbusSlaveDefaultFunctionCount
 *fill*         0x000000000000f181        0x3 
 .sdata2._global_impure_ptr
                0x000000000000f184        0x4 c:/mounriver/mounriver_studio/toolchain/risc-v embedded gcc/bin/../lib/gcc/riscv-none-embed/8.2.0/../../../../riscv-none-embed/lib/rv32imac/ilp32\libg_nano.a(lib_a-impure.o)
                0x000000000000f184                _global_impure_ptr
 *(.glue_7)
 *(.glue_7t)
 *(.gnu.linkonce.t.*)
                0x000000000000f188                . = ALIGN (0x4)

.rela.dyn       0x000000000000f188        0x0
 .rela.text.adc_convert_caclute
                0x000000000000f188        0x0 ./src/utils/crc.o
 .rela.text.onewire_find_alldevice
                0x000000000000f188        0x0 ./src/utils/crc.o
 .rela.text.mdc02_writeparameters_skiprom
                0x000000000000f188        0x0 ./src/utils/crc.o
 .rela.text.mdc02_readparameters_skiprom
                0x000000000000f188        0x0 ./src/utils/crc.o
 .rela.text.mdc02_writescratchpad_skiprom
                0x000000000000f188        0x0 ./src/utils/crc.o
 .rela.text.convertcap
                0x000000000000f188        0x0 ./src/utils/crc.o
 .rela.text.converttemp
                0x000000000000f188        0x0 ./src/utils/crc.o
 .rela.text.convert_tempcap1
                0x000000000000f188        0x0 ./src/utils/crc.o
 .rela.text.mdc02_readscratchpad_skiprom
                0x000000000000f188        0x0 ./src/utils/crc.o
 .rela.text.mdc02_readc2c3c4_skiprom
                0x000000000000f188        0x0 ./src/utils/crc.o
 .rela.text.romid_crc
                0x000000000000f188        0x0 ./src/utils/crc.o
 .rela.text.mdc02_range
                0x000000000000f188        0x0 ./src/utils/crc.o
 .rela.text.dev_type_choose_function
                0x000000000000f188        0x0 ./src/utils/crc.o
 .rela.init     0x000000000000f188        0x0 ./src/utils/crc.o
 .rela.vector   0x000000000000f188        0x0 ./src/utils/crc.o
 .rela.handle_reset
                0x000000000000f188        0x0 ./src/utils/crc.o
 .rela.text._sbrk_r
                0x000000000000f188        0x0 ./src/utils/crc.o
 .rela.text._svfprintf_r
                0x000000000000f188        0x0 ./src/utils/crc.o
 .rela.text._vfprintf_r
                0x000000000000f188        0x0 ./src/utils/crc.o
 .rela.text._write_r
                0x000000000000f188        0x0 ./src/utils/crc.o
 .rela.text._close_r
                0x000000000000f188        0x0 ./src/utils/crc.o
 .rela.text._fstat_r
                0x000000000000f188        0x0 ./src/utils/crc.o
 .rela.text._isatty_r
                0x000000000000f188        0x0 ./src/utils/crc.o
 .rela.text._lseek_r
                0x000000000000f188        0x0 ./src/utils/crc.o
 .rela.text._read_r
                0x000000000000f188        0x0 ./src/utils/crc.o
 .rela.text._close
                0x000000000000f188        0x0 ./src/utils/crc.o
 .rela.text._fstat
                0x000000000000f188        0x0 ./src/utils/crc.o
 .rela.text._isatty
                0x000000000000f188        0x0 ./src/utils/crc.o
 .rela.text._lseek
                0x000000000000f188        0x0 ./src/utils/crc.o
 .rela.text._read
                0x000000000000f188        0x0 ./src/utils/crc.o
 .rela.text._sbrk
                0x000000000000f188        0x0 ./src/utils/crc.o

.fini           0x000000000000f188        0x0
 *(SORT_NONE(.fini))
                0x000000000000f188                . = ALIGN (0x4)
                [!provide]                        PROVIDE (_etext = .)
                [!provide]                        PROVIDE (_eitcm = .)

.preinit_array  0x000000000000f188        0x0
                [!provide]                        PROVIDE (__preinit_array_start = .)
 *(.preinit_array)
                [!provide]                        PROVIDE (__preinit_array_end = .)

.init_array     0x000000000000f188        0x0
                [!provide]                        PROVIDE (__init_array_start = .)
 *(SORT_BY_INIT_PRIORITY(.init_array.*) SORT_BY_INIT_PRIORITY(.ctors.*))
 *(.init_array EXCLUDE_FILE(*crtend?.o *crtend.o *crtbegin?.o *crtbegin.o) .ctors)
                [!provide]                        PROVIDE (__init_array_end = .)

.fini_array     0x000000000000f188        0x0
                [!provide]                        PROVIDE (__fini_array_start = .)
 *(SORT_BY_INIT_PRIORITY(.fini_array.*) SORT_BY_INIT_PRIORITY(.dtors.*))
 *(.fini_array EXCLUDE_FILE(*crtend?.o *crtend.o *crtbegin?.o *crtbegin.o) .dtors)
                [!provide]                        PROVIDE (__fini_array_end = .)

.ctors
 *crtbegin.o(.ctors)
 *crtbegin?.o(.ctors)
 *(EXCLUDE_FILE(*crtend?.o *crtend.o) .ctors)
 *(SORT_BY_NAME(.ctors.*))
 *(.ctors)

.dtors
 *crtbegin.o(.dtors)
 *crtbegin?.o(.dtors)
 *(EXCLUDE_FILE(*crtend?.o *crtend.o) .dtors)
 *(SORT_BY_NAME(.dtors.*))
 *(.dtors)

.dalign         0x0000000020000848        0x0 load address 0x000000000000f188
                0x0000000020000848                . = (ORIGIN (RAM) + MAX (0x800, SIZEOF (.highcode)))

.dlalign        0x000000000000f188        0x0
                0x000000000000f188                . = ALIGN (0x4)
                0x000000000000f188                PROVIDE (_data_lma = .)

.data           0x0000000020000848      0x268 load address 0x000000000000f188
                0x0000000020000848                . = ALIGN (0x4)
                0x0000000020000848                PROVIDE (_data_vma = .)
 *(.gnu.linkonce.r.*)
 *(.data .data.*)
 .data.cfg_items
                0x0000000020000848       0x3c ./src/configtool.o
 .data.modbusSlaveDefaultFunctions
                0x0000000020000884       0x50 ./src/liblightmodbus-impl.o
                0x0000000020000884                modbusSlaveDefaultFunctions
 .data.__global_locale
                0x00000000200008d4      0x16c c:/mounriver/mounriver_studio/toolchain/risc-v embedded gcc/bin/../lib/gcc/riscv-none-embed/8.2.0/../../../../riscv-none-embed/lib/rv32imac/ilp32\libg_nano.a(lib_a-locale.o)
                0x00000000200008d4                __global_locale
 .data.impure_data
                0x0000000020000a40       0x60 c:/mounriver/mounriver_studio/toolchain/risc-v embedded gcc/bin/../lib/gcc/riscv-none-embed/8.2.0/../../../../riscv-none-embed/lib/rv32imac/ilp32\libg_nano.a(lib_a-impure.o)
 *(.gnu.linkonce.d.*)
                0x0000000020000aa0                . = ALIGN (0x8)
                0x00000000200012a0                PROVIDE (__global_pointer$ = (. + 0x800))
 *(.sdata .sdata.*)
 .sdata.mb_di_list
                0x0000000020000aa0        0x8 ./src/modbus/discrete_input.o
                0x0000000020000aa0                mb_di_list
 .sdata._impure_ptr
                0x0000000020000aa8        0x4 c:/mounriver/mounriver_studio/toolchain/risc-v embedded gcc/bin/../lib/gcc/riscv-none-embed/8.2.0/../../../../riscv-none-embed/lib/rv32imac/ilp32\libg_nano.a(lib_a-impure.o)
                0x0000000020000aa8                _impure_ptr
 *(.gnu.linkonce.s.*)
                0x0000000020000ab0                . = ALIGN (0x8)
 *fill*         0x0000000020000aac        0x4 
 *(.srodata.cst16)
 *(.srodata.cst8)
 *(.srodata.cst4)
 *(.srodata.cst2)
 *(.srodata .srodata.*)
                0x0000000020000ab0                . = ALIGN (0x4)
                0x0000000020000ab0                PROVIDE (_edata = .)

.appinfo        0x0000000020000ab0       0x2a load address 0x000000000000f3f0
 .appinfo       0x0000000020000ab0       0x2a ./src/appinfo.o

.bss            0x0000000020000ae0      0xc68 load address 0x000000000000f41a
                0x0000000020000ae0                . = ALIGN (0x4)
                0x0000000020000ae0                PROVIDE (_sbss = .)
 *(.sbss*)
 .sbss.mb_di_pr_cache
                0x0000000020000ae0        0x1 ./src/modbus/discrete_input.o
 *fill*         0x0000000020000ae1        0x3 
 .sbss.mb_iregs
                0x0000000020000ae4        0x2 ./src/modbus/iregs.o
 *fill*         0x0000000020000ae6        0x2 
 .sbss.mb_pr_iregs
                0x0000000020000ae8        0x2 ./src/modbus/iregs.o
 *fill*         0x0000000020000aea        0x2 
 .sbss.mb_test_regs
                0x0000000020000aec        0x4 ./src/modbus/regs.o
 .sbss.cfg_flag_init
                0x0000000020000af0        0x1 ./src/configtool.o
 .sbss.mb_timer_ref
                0x0000000020000af1        0x1 ./src/modbus.o
 .sbss.flag_refresh
                0x0000000020000af2        0x1 ./src/oled.o
 *fill*         0x0000000020000af3        0x1 
 .sbss.ow_flag_timerout
                0x0000000020000af4        0x4 ./src/onewire.o
 .sbss.sensor_ctx
                0x0000000020000af8        0x8 ./src/sensor.o
 .sbss.uid_read
                0x0000000020000b00        0x1 ./src/uid.o
 *fill*         0x0000000020000b01        0x7 
 .sbss.worktime
                0x0000000020000b08        0x8 ./src/worktime.o
 .sbss.__malloc_free_list
                0x0000000020000b10        0x4 c:/mounriver/mounriver_studio/toolchain/risc-v embedded gcc/bin/../lib/gcc/riscv-none-embed/8.2.0/../../../../riscv-none-embed/lib/rv32imac/ilp32\libg_nano.a(lib_a-nano-mallocr.o)
                0x0000000020000b10                __malloc_free_list
 .sbss.__malloc_sbrk_start
                0x0000000020000b14        0x4 c:/mounriver/mounriver_studio/toolchain/risc-v embedded gcc/bin/../lib/gcc/riscv-none-embed/8.2.0/../../../../riscv-none-embed/lib/rv32imac/ilp32\libg_nano.a(lib_a-nano-mallocr.o)
                0x0000000020000b14                __malloc_sbrk_start
 .sbss.heap_end.1518
                0x0000000020000b18        0x4 c:/mounriver/mounriver_studio/toolchain/risc-v embedded gcc/bin/../lib/gcc/riscv-none-embed/8.2.0/../../../../riscv-none-embed/lib/rv32imac/ilp32\libnosys.a(sbrk.o)
 *(.gnu.linkonce.sb.*)
 *(.bss*)
 .bss.mb_config_regs
                0x0000000020000b1c        0xe ./src/modbus/regs.o
 *fill*         0x0000000020000b2a        0x2 
 .bss.mb_ro_regs
                0x0000000020000b2c       0xe0 ./src/modbus/regs.o
 .bss.mb_rwa_regs
                0x0000000020000c0c       0x1e ./src/modbus/regs.o
 *fill*         0x0000000020000c2a        0x2 
 .bss.cfg_cache
                0x0000000020000c2c       0x3c ./src/configtool.o
 .bss.line_idx  0x0000000020000c68       0x10 ./src/display.o
 .bss.lines     0x0000000020000c78       0x48 ./src/display.o
 .bss.mb_slave_ctx
                0x0000000020000cc0      0x260 ./src/modbus.o
 .bss.OLED_GRAM
                0x0000000020000f20      0x480 ./src/oled.o
 .bss.st_ctx    0x00000000200013a0       0x34 ./src/storage.o
 .bss.uid       0x00000000200013d4        0x9 ./src/uid.o
 *(.gnu.linkonce.b.*)
 *(COMMON*)
 *fill*         0x00000000200013dd        0x3 
 COMMON         0x00000000200013e0       0x18 ./src/adc.o
                0x00000000200013e0                array_t
 COMMON         0x00000000200013f8      0x34c ./src/onewire.o
                0x00000000200013f8                device_t
                0x000000002000171c                onewire_dev
                0x000000002000173c                ROM_NO
 COMMON         0x0000000020001744        0x4 c:/mounriver/mounriver_studio/toolchain/risc-v embedded gcc/bin/../lib/gcc/riscv-none-embed/8.2.0/../../../../riscv-none-embed/lib/rv32imac/ilp32\libg_nano.a(lib_a-reent.o)
                0x0000000020001744                errno
                0x0000000020001748                . = ALIGN (0x4)
                0x0000000020001748                PROVIDE (_ebss = .)
                [!provide]                        PROVIDE (_end = _ebss)
                0x0000000020001748                PROVIDE (end = .)

.stack          0x0000000020008000        0x0
                0x0000000020008000                . = ALIGN (0x4)
                0x0000000020008000                PROVIDE (_eusrstack = .)
OUTPUT(CH582M-app-onewire.elf elf32-littleriscv)

.debug_info     0x0000000000000000    0x23094
 .debug_info    0x0000000000000000      0xa04 ./src/utils/crc.o
 .debug_info    0x0000000000000a04      0xf74 ./src/utils/log.o
 .debug_info    0x0000000000001978     0x1316 ./src/modbus/coils.o
 .debug_info    0x0000000000002c8e     0x16ba ./src/modbus/discrete_input.o
 .debug_info    0x0000000000004348     0x1294 ./src/modbus/iregs.o
 .debug_info    0x00000000000055dc     0x1620 ./src/modbus/regs.o
 .debug_info    0x0000000000006bfc     0x15af ./src/Main.o
 .debug_info    0x00000000000081ab     0x154a ./src/adc.o
 .debug_info    0x00000000000096f5      0x152 ./src/appinfo.o
 .debug_info    0x0000000000009847     0x168d ./src/configtool.o
 .debug_info    0x000000000000aed4      0xd23 ./src/display.o
 .debug_info    0x000000000000bbf7     0x2b86 ./src/liblightmodbus-impl.o
 .debug_info    0x000000000000e77d     0x22f2 ./src/modbus.o
 .debug_info    0x0000000000010a6f     0x1d1d ./src/oled.o
 .debug_info    0x000000000001278c     0x3f46 ./src/onewire.o
 .debug_info    0x00000000000166d2     0x1752 ./src/sensor.o
 .debug_info    0x0000000000017e24     0x2bbe ./src/storage.o
 .debug_info    0x000000000001a9e2      0xcc9 ./src/uid.o
 .debug_info    0x000000000001b6ab     0x10aa ./src/worktime.o
 .debug_info    0x000000000001c755      0xf96 ./StdPeriphDriver/CH58x_adc.o
 .debug_info    0x000000000001d6eb      0xe62 ./StdPeriphDriver/CH58x_gpio.o
 .debug_info    0x000000000001e54d     0x12a5 ./StdPeriphDriver/CH58x_sys.o
 .debug_info    0x000000000001f7f2      0xdb4 ./StdPeriphDriver/CH58x_timer0.o
 .debug_info    0x00000000000205a6      0xe58 ./StdPeriphDriver/CH58x_timer1.o
 .debug_info    0x00000000000213fe      0xe3a ./StdPeriphDriver/CH58x_uart1.o
 .debug_info    0x0000000000022238      0xe3a ./StdPeriphDriver/CH58x_uart3.o
 .debug_info    0x0000000000023072       0x22 ./Startup/startup_CH583.o

.debug_abbrev   0x0000000000000000     0x57d9
 .debug_abbrev  0x0000000000000000      0x1cc ./src/utils/crc.o
 .debug_abbrev  0x00000000000001cc      0x2a8 ./src/utils/log.o
 .debug_abbrev  0x0000000000000474      0x321 ./src/modbus/coils.o
 .debug_abbrev  0x0000000000000795      0x3b8 ./src/modbus/discrete_input.o
 .debug_abbrev  0x0000000000000b4d      0x2ff ./src/modbus/iregs.o
 .debug_abbrev  0x0000000000000e4c      0x3e1 ./src/modbus/regs.o
 .debug_abbrev  0x000000000000122d      0x309 ./src/Main.o
 .debug_abbrev  0x0000000000001536      0x3a9 ./src/adc.o
 .debug_abbrev  0x00000000000018df       0xb9 ./src/appinfo.o
 .debug_abbrev  0x0000000000001998      0x3f9 ./src/configtool.o
 .debug_abbrev  0x0000000000001d91      0x329 ./src/display.o
 .debug_abbrev  0x00000000000020ba      0x5a9 ./src/liblightmodbus-impl.o
 .debug_abbrev  0x0000000000002663      0x5ff ./src/modbus.o
 .debug_abbrev  0x0000000000002c62      0x44c ./src/oled.o
 .debug_abbrev  0x00000000000030ae      0x74a ./src/onewire.o
 .debug_abbrev  0x00000000000037f8      0x32b ./src/sensor.o
 .debug_abbrev  0x0000000000003b23      0x4fe ./src/storage.o
 .debug_abbrev  0x0000000000004021      0x222 ./src/uid.o
 .debug_abbrev  0x0000000000004243      0x316 ./src/worktime.o
 .debug_abbrev  0x0000000000004559      0x2cf ./StdPeriphDriver/CH58x_adc.o
 .debug_abbrev  0x0000000000004828      0x268 ./StdPeriphDriver/CH58x_gpio.o
 .debug_abbrev  0x0000000000004a90      0x368 ./StdPeriphDriver/CH58x_sys.o
 .debug_abbrev  0x0000000000004df8      0x235 ./StdPeriphDriver/CH58x_timer0.o
 .debug_abbrev  0x000000000000502d      0x246 ./StdPeriphDriver/CH58x_timer1.o
 .debug_abbrev  0x0000000000005273      0x2aa ./StdPeriphDriver/CH58x_uart1.o
 .debug_abbrev  0x000000000000551d      0x2aa ./StdPeriphDriver/CH58x_uart3.o
 .debug_abbrev  0x00000000000057c7       0x12 ./Startup/startup_CH583.o

.debug_loc      0x0000000000000000     0xb471
 .debug_loc     0x0000000000000000     0x23cb ./src/utils/crc.o
 .debug_loc     0x00000000000023cb      0x3c3 ./src/utils/log.o
 .debug_loc     0x000000000000278e       0xd7 ./src/modbus/coils.o
 .debug_loc     0x0000000000002865      0x2ac ./src/modbus/discrete_input.o
 .debug_loc     0x0000000000002b11       0xee ./src/modbus/iregs.o
 .debug_loc     0x0000000000002bff      0x466 ./src/modbus/regs.o
 .debug_loc     0x0000000000003065       0xb3 ./src/Main.o
 .debug_loc     0x0000000000003118       0xd1 ./src/adc.o
 .debug_loc     0x00000000000031e9      0x489 ./src/configtool.o
 .debug_loc     0x0000000000003672      0x1e2 ./src/display.o
 .debug_loc     0x0000000000003854     0x2648 ./src/liblightmodbus-impl.o
 .debug_loc     0x0000000000005e9c      0x4e6 ./src/modbus.o
 .debug_loc     0x0000000000006382      0xcf0 ./src/oled.o
 .debug_loc     0x0000000000007072     0x1d63 ./src/onewire.o
 .debug_loc     0x0000000000008dd5      0x1ca ./src/sensor.o
 .debug_loc     0x0000000000008f9f     0x1811 ./src/storage.o
 .debug_loc     0x000000000000a7b0       0x5f ./src/worktime.o
 .debug_loc     0x000000000000a80f      0x1c5 ./StdPeriphDriver/CH58x_adc.o
 .debug_loc     0x000000000000a9d4      0x361 ./StdPeriphDriver/CH58x_gpio.o
 .debug_loc     0x000000000000ad35      0x25a ./StdPeriphDriver/CH58x_sys.o
 .debug_loc     0x000000000000af8f       0x84 ./StdPeriphDriver/CH58x_timer0.o
 .debug_loc     0x000000000000b013       0x84 ./StdPeriphDriver/CH58x_timer1.o
 .debug_loc     0x000000000000b097      0x1ed ./StdPeriphDriver/CH58x_uart1.o
 .debug_loc     0x000000000000b284      0x1ed ./StdPeriphDriver/CH58x_uart3.o

.debug_aranges  0x0000000000000000      0xa48
 .debug_aranges
                0x0000000000000000       0x60 ./src/utils/crc.o
 .debug_aranges
                0x0000000000000060       0x28 ./src/utils/log.o
 .debug_aranges
                0x0000000000000088       0x30 ./src/modbus/coils.o
 .debug_aranges
                0x00000000000000b8       0x30 ./src/modbus/discrete_input.o
 .debug_aranges
                0x00000000000000e8       0x30 ./src/modbus/iregs.o
 .debug_aranges
                0x0000000000000118       0x48 ./src/modbus/regs.o
 .debug_aranges
                0x0000000000000160       0x30 ./src/Main.o
 .debug_aranges
                0x0000000000000190       0x28 ./src/adc.o
 .debug_aranges
                0x00000000000001b8       0x20 ./src/appinfo.o
 .debug_aranges
                0x00000000000001d8       0x58 ./src/configtool.o
 .debug_aranges
                0x0000000000000230       0x30 ./src/display.o
 .debug_aranges
                0x0000000000000260       0xe8 ./src/liblightmodbus-impl.o
 .debug_aranges
                0x0000000000000348       0x98 ./src/modbus.o
 .debug_aranges
                0x00000000000003e0       0xa8 ./src/oled.o
 .debug_aranges
                0x0000000000000488      0x210 ./src/onewire.o
 .debug_aranges
                0x0000000000000698       0x38 ./src/sensor.o
 .debug_aranges
                0x00000000000006d0       0x98 ./src/storage.o
 .debug_aranges
                0x0000000000000768       0x20 ./src/uid.o
 .debug_aranges
                0x0000000000000788       0x38 ./src/worktime.o
 .debug_aranges
                0x00000000000007c0       0x70 ./StdPeriphDriver/CH58x_adc.o
 .debug_aranges
                0x0000000000000830       0x48 ./StdPeriphDriver/CH58x_gpio.o
 .debug_aranges
                0x0000000000000878       0x88 ./StdPeriphDriver/CH58x_sys.o
 .debug_aranges
                0x0000000000000900       0x38 ./StdPeriphDriver/CH58x_timer0.o
 .debug_aranges
                0x0000000000000938       0x40 ./StdPeriphDriver/CH58x_timer1.o
 .debug_aranges
                0x0000000000000978       0x50 ./StdPeriphDriver/CH58x_uart1.o
 .debug_aranges
                0x00000000000009c8       0x50 ./StdPeriphDriver/CH58x_uart3.o
 .debug_aranges
                0x0000000000000a18       0x30 ./Startup/startup_CH583.o

.debug_ranges   0x0000000000000000     0x1478
 .debug_ranges  0x0000000000000000       0xb0 ./src/utils/crc.o
 .debug_ranges  0x00000000000000b0       0x70 ./src/utils/log.o
 .debug_ranges  0x0000000000000120       0x20 ./src/modbus/coils.o
 .debug_ranges  0x0000000000000140       0x38 ./src/modbus/discrete_input.o
 .debug_ranges  0x0000000000000178       0x50 ./src/modbus/iregs.o
 .debug_ranges  0x00000000000001c8       0x58 ./src/modbus/regs.o
 .debug_ranges  0x0000000000000220       0x20 ./src/Main.o
 .debug_ranges  0x0000000000000240       0x88 ./src/adc.o
 .debug_ranges  0x00000000000002c8       0x10 ./src/appinfo.o
 .debug_ranges  0x00000000000002d8       0x68 ./src/configtool.o
 .debug_ranges  0x0000000000000340       0x38 ./src/display.o
 .debug_ranges  0x0000000000000378      0x6c0 ./src/liblightmodbus-impl.o
 .debug_ranges  0x0000000000000a38      0x130 ./src/modbus.o
 .debug_ranges  0x0000000000000b68       0xe8 ./src/oled.o
 .debug_ranges  0x0000000000000c50      0x350 ./src/onewire.o
 .debug_ranges  0x0000000000000fa0       0x28 ./src/sensor.o
 .debug_ranges  0x0000000000000fc8      0x250 ./src/storage.o
 .debug_ranges  0x0000000000001218       0x10 ./src/uid.o
 .debug_ranges  0x0000000000001228       0x40 ./src/worktime.o
 .debug_ranges  0x0000000000001268       0x60 ./StdPeriphDriver/CH58x_adc.o
 .debug_ranges  0x00000000000012c8       0x38 ./StdPeriphDriver/CH58x_gpio.o
 .debug_ranges  0x0000000000001300       0x78 ./StdPeriphDriver/CH58x_sys.o
 .debug_ranges  0x0000000000001378       0x28 ./StdPeriphDriver/CH58x_timer0.o
 .debug_ranges  0x00000000000013a0       0x30 ./StdPeriphDriver/CH58x_timer1.o
 .debug_ranges  0x00000000000013d0       0x40 ./StdPeriphDriver/CH58x_uart1.o
 .debug_ranges  0x0000000000001410       0x40 ./StdPeriphDriver/CH58x_uart3.o
 .debug_ranges  0x0000000000001450       0x28 ./Startup/startup_CH583.o

.debug_line     0x0000000000000000    0x127e7
 .debug_line    0x0000000000000000      0xd1a ./src/utils/crc.o
 .debug_line    0x0000000000000d1a      0x672 ./src/utils/log.o
 .debug_line    0x000000000000138c      0x39f ./src/modbus/coils.o
 .debug_line    0x000000000000172b      0x5c3 ./src/modbus/discrete_input.o
 .debug_line    0x0000000000001cee      0x3c3 ./src/modbus/iregs.o
 .debug_line    0x00000000000020b1      0x82c ./src/modbus/regs.o
 .debug_line    0x00000000000028dd      0x675 ./src/Main.o
 .debug_line    0x0000000000002f52      0x7f3 ./src/adc.o
 .debug_line    0x0000000000003745      0x147 ./src/appinfo.o
 .debug_line    0x000000000000388c      0xa04 ./src/configtool.o
 .debug_line    0x0000000000004290      0x5f6 ./src/display.o
 .debug_line    0x0000000000004886     0x2407 ./src/liblightmodbus-impl.o
 .debug_line    0x0000000000006c8d     0x113a ./src/modbus.o
 .debug_line    0x0000000000007dc7     0x147d ./src/oled.o
 .debug_line    0x0000000000009244     0x34fe ./src/onewire.o
 .debug_line    0x000000000000c742      0x5ff ./src/sensor.o
 .debug_line    0x000000000000cd41     0x2499 ./src/storage.o
 .debug_line    0x000000000000f1da      0x273 ./src/uid.o
 .debug_line    0x000000000000f44d      0x36f ./src/worktime.o
 .debug_line    0x000000000000f7bc      0x8d9 ./StdPeriphDriver/CH58x_adc.o
 .debug_line    0x0000000000010095      0x704 ./StdPeriphDriver/CH58x_gpio.o
 .debug_line    0x0000000000010799      0xc69 ./StdPeriphDriver/CH58x_sys.o
 .debug_line    0x0000000000011402      0x360 ./StdPeriphDriver/CH58x_timer0.o
 .debug_line    0x0000000000011762      0x410 ./StdPeriphDriver/CH58x_timer1.o
 .debug_line    0x0000000000011b72      0x547 ./StdPeriphDriver/CH58x_uart1.o
 .debug_line    0x00000000000120b9      0x547 ./StdPeriphDriver/CH58x_uart3.o
 .debug_line    0x0000000000012600      0x1e7 ./Startup/startup_CH583.o

.debug_str      0x0000000000000000     0x4302
 .debug_str     0x0000000000000000      0x254 ./src/utils/crc.o
                                        0x2b8 (size before relaxing)
 .debug_str     0x0000000000000254      0x744 ./src/utils/log.o
                                        0x94b (size before relaxing)
 .debug_str     0x0000000000000998      0xbff ./src/modbus/coils.o
                                       0x11f9 (size before relaxing)
 .debug_str     0x0000000000001597      0x10e ./src/modbus/discrete_input.o
                                       0x14f8 (size before relaxing)
 .debug_str     0x00000000000016a5      0x125 ./src/modbus/iregs.o
                                       0x1245 (size before relaxing)
 .debug_str     0x00000000000017ca      0x22f ./src/modbus/regs.o
                                       0x1386 (size before relaxing)
 .debug_str     0x00000000000019f9      0x41c ./src/Main.o
                                       0x10c2 (size before relaxing)
 .debug_str     0x0000000000001e15      0x1b4 ./src/adc.o
                                        0xfa0 (size before relaxing)
 .debug_str     0x0000000000001fc9       0x49 ./src/appinfo.o
                                        0x1e7 (size before relaxing)
 .debug_str     0x0000000000002012      0x350 ./src/configtool.o
                                        0xc16 (size before relaxing)
 .debug_str     0x0000000000002362       0xee ./src/display.o
                                        0x6a2 (size before relaxing)
 .debug_str     0x0000000000002450      0x483 ./src/liblightmodbus-impl.o
                                        0xe81 (size before relaxing)
 .debug_str     0x00000000000028d3      0x46f ./src/modbus.o
                                       0x1b26 (size before relaxing)
 .debug_str     0x0000000000002d42      0x154 ./src/oled.o
                                        0xaa0 (size before relaxing)
 .debug_str     0x0000000000002e96      0x9e6 ./src/onewire.o
                                       0x1b33 (size before relaxing)
 .debug_str     0x000000000000387c       0x9a ./src/sensor.o
                                       0x145f (size before relaxing)
 .debug_str     0x0000000000003916      0x33d ./src/storage.o
                                        0xcb2 (size before relaxing)
 .debug_str     0x0000000000003c53       0x16 ./src/uid.o
                                        0x84a (size before relaxing)
 .debug_str     0x0000000000003c69       0x44 ./src/worktime.o
                                        0xaa7 (size before relaxing)
 .debug_str     0x0000000000003cad      0x1db ./StdPeriphDriver/CH58x_adc.o
                                        0xac7 (size before relaxing)
 .debug_str     0x0000000000003e88       0xe4 ./StdPeriphDriver/CH58x_gpio.o
                                        0x9ab (size before relaxing)
 .debug_str     0x0000000000003f6c      0x12a ./StdPeriphDriver/CH58x_sys.o
                                        0xc0a (size before relaxing)
 .debug_str     0x0000000000004096      0x111 ./StdPeriphDriver/CH58x_timer0.o
                                        0x95a (size before relaxing)
 .debug_str     0x00000000000041a7       0x62 ./StdPeriphDriver/CH58x_timer1.o
                                        0x9b5 (size before relaxing)
 .debug_str     0x0000000000004209       0x94 ./StdPeriphDriver/CH58x_uart1.o
                                        0x950 (size before relaxing)
 .debug_str     0x000000000000429d       0x3e ./StdPeriphDriver/CH58x_uart3.o
                                        0x950 (size before relaxing)
 .debug_str     0x00000000000042db       0x27 ./Startup/startup_CH583.o
                                         0x46 (size before relaxing)

.comment        0x0000000000000000       0x33
 .comment       0x0000000000000000       0x33 ./src/utils/crc.o
                                         0x34 (size before relaxing)
 .comment       0x0000000000000033       0x34 ./src/utils/log.o
 .comment       0x0000000000000033       0x34 ./src/modbus/coils.o
 .comment       0x0000000000000033       0x34 ./src/modbus/discrete_input.o
 .comment       0x0000000000000033       0x34 ./src/modbus/iregs.o
 .comment       0x0000000000000033       0x34 ./src/modbus/regs.o
 .comment       0x0000000000000033       0x34 ./src/Main.o
 .comment       0x0000000000000033       0x34 ./src/adc.o
 .comment       0x0000000000000033       0x34 ./src/appinfo.o
 .comment       0x0000000000000033       0x34 ./src/configtool.o
 .comment       0x0000000000000033       0x34 ./src/display.o
 .comment       0x0000000000000033       0x34 ./src/liblightmodbus-impl.o
 .comment       0x0000000000000033       0x34 ./src/modbus.o
 .comment       0x0000000000000033       0x34 ./src/oled.o
 .comment       0x0000000000000033       0x34 ./src/onewire.o
 .comment       0x0000000000000033       0x34 ./src/sensor.o
 .comment       0x0000000000000033       0x34 ./src/storage.o
 .comment       0x0000000000000033       0x34 ./src/uid.o
 .comment       0x0000000000000033       0x34 ./src/worktime.o
 .comment       0x0000000000000033       0x34 ./StdPeriphDriver/CH58x_adc.o
 .comment       0x0000000000000033       0x34 ./StdPeriphDriver/CH58x_gpio.o
 .comment       0x0000000000000033       0x34 ./StdPeriphDriver/CH58x_sys.o
 .comment       0x0000000000000033       0x34 ./StdPeriphDriver/CH58x_timer0.o
 .comment       0x0000000000000033       0x34 ./StdPeriphDriver/CH58x_timer1.o
 .comment       0x0000000000000033       0x34 ./StdPeriphDriver/CH58x_uart1.o
 .comment       0x0000000000000033       0x34 ./StdPeriphDriver/CH58x_uart3.o
 .comment       0x0000000000000033       0x34 ../StdPeriphDriver\libISP583.a(ISP583.o)

.debug_frame    0x0000000000000000     0x36d4
 .debug_frame   0x0000000000000000      0x174 ./src/utils/crc.o
 .debug_frame   0x0000000000000174       0xc4 ./src/utils/log.o
 .debug_frame   0x0000000000000238       0x54 ./src/modbus/coils.o
 .debug_frame   0x000000000000028c       0x4c ./src/modbus/discrete_input.o
 .debug_frame   0x00000000000002d8       0x40 ./src/modbus/iregs.o
 .debug_frame   0x0000000000000318       0xbc ./src/modbus/regs.o
 .debug_frame   0x00000000000003d4       0x78 ./src/Main.o
 .debug_frame   0x000000000000044c       0x7c ./src/adc.o
 .debug_frame   0x00000000000004c8       0x20 ./src/appinfo.o
 .debug_frame   0x00000000000004e8      0x16c ./src/configtool.o
 .debug_frame   0x0000000000000654       0x84 ./src/display.o
 .debug_frame   0x00000000000006d8      0x378 ./src/liblightmodbus-impl.o
 .debug_frame   0x0000000000000a50      0x1d4 ./src/modbus.o
 .debug_frame   0x0000000000000c24      0x2e0 ./src/oled.o
 .debug_frame   0x0000000000000f04      0x9e0 ./src/onewire.o
 .debug_frame   0x00000000000018e4       0x90 ./src/sensor.o
 .debug_frame   0x0000000000001974      0x328 ./src/storage.o
 .debug_frame   0x0000000000001c9c       0x2c ./src/uid.o
 .debug_frame   0x0000000000001cc8       0x5c ./src/worktime.o
 .debug_frame   0x0000000000001d24       0xc0 ./StdPeriphDriver/CH58x_adc.o
 .debug_frame   0x0000000000001de4       0x70 ./StdPeriphDriver/CH58x_gpio.o
 .debug_frame   0x0000000000001e54      0x114 ./StdPeriphDriver/CH58x_sys.o
 .debug_frame   0x0000000000001f68       0x50 ./StdPeriphDriver/CH58x_timer0.o
 .debug_frame   0x0000000000001fb8       0x60 ./StdPeriphDriver/CH58x_timer1.o
 .debug_frame   0x0000000000002018       0x9c ./StdPeriphDriver/CH58x_uart1.o
 .debug_frame   0x00000000000020b4       0x9c ./StdPeriphDriver/CH58x_uart3.o
 .debug_frame   0x0000000000002150       0x44 c:/mounriver/mounriver_studio/toolchain/risc-v embedded gcc/bin/../lib/gcc/riscv-none-embed/8.2.0/rv32imac/ilp32\libgcc.a(adddf3.o)
 .debug_frame   0x0000000000002194       0x50 c:/mounriver/mounriver_studio/toolchain/risc-v embedded gcc/bin/../lib/gcc/riscv-none-embed/8.2.0/rv32imac/ilp32\libgcc.a(divdf3.o)
 .debug_frame   0x00000000000021e4       0x54 c:/mounriver/mounriver_studio/toolchain/risc-v embedded gcc/bin/../lib/gcc/riscv-none-embed/8.2.0/rv32imac/ilp32\libgcc.a(muldf3.o)
 .debug_frame   0x0000000000002238       0x44 c:/mounriver/mounriver_studio/toolchain/risc-v embedded gcc/bin/../lib/gcc/riscv-none-embed/8.2.0/rv32imac/ilp32\libgcc.a(subdf3.o)
 .debug_frame   0x000000000000227c       0x38 c:/mounriver/mounriver_studio/toolchain/risc-v embedded gcc/bin/../lib/gcc/riscv-none-embed/8.2.0/rv32imac/ilp32\libgcc.a(floatsidf.o)
 .debug_frame   0x00000000000022b4       0x40 c:/mounriver/mounriver_studio/toolchain/risc-v embedded gcc/bin/../lib/gcc/riscv-none-embed/8.2.0/rv32imac/ilp32\libgcc.a(addsf3.o)
 .debug_frame   0x00000000000022f4       0x50 c:/mounriver/mounriver_studio/toolchain/risc-v embedded gcc/bin/../lib/gcc/riscv-none-embed/8.2.0/rv32imac/ilp32\libgcc.a(divsf3.o)
 .debug_frame   0x0000000000002344       0x20 c:/mounriver/mounriver_studio/toolchain/risc-v embedded gcc/bin/../lib/gcc/riscv-none-embed/8.2.0/rv32imac/ilp32\libgcc.a(gesf2.o)
 .debug_frame   0x0000000000002364       0x20 c:/mounriver/mounriver_studio/toolchain/risc-v embedded gcc/bin/../lib/gcc/riscv-none-embed/8.2.0/rv32imac/ilp32\libgcc.a(lesf2.o)
 .debug_frame   0x0000000000002384       0x50 c:/mounriver/mounriver_studio/toolchain/risc-v embedded gcc/bin/../lib/gcc/riscv-none-embed/8.2.0/rv32imac/ilp32\libgcc.a(mulsf3.o)
 .debug_frame   0x00000000000023d4       0x3c c:/mounriver/mounriver_studio/toolchain/risc-v embedded gcc/bin/../lib/gcc/riscv-none-embed/8.2.0/rv32imac/ilp32\libgcc.a(subsf3.o)
 .debug_frame   0x0000000000002410       0x20 c:/mounriver/mounriver_studio/toolchain/risc-v embedded gcc/bin/../lib/gcc/riscv-none-embed/8.2.0/rv32imac/ilp32\libgcc.a(fixunssfsi.o)
 .debug_frame   0x0000000000002430       0x38 c:/mounriver/mounriver_studio/toolchain/risc-v embedded gcc/bin/../lib/gcc/riscv-none-embed/8.2.0/rv32imac/ilp32\libgcc.a(floatsisf.o)
 .debug_frame   0x0000000000002468       0x38 c:/mounriver/mounriver_studio/toolchain/risc-v embedded gcc/bin/../lib/gcc/riscv-none-embed/8.2.0/rv32imac/ilp32\libgcc.a(extendsfdf2.o)
 .debug_frame   0x00000000000024a0       0x20 c:/mounriver/mounriver_studio/toolchain/risc-v embedded gcc/bin/../lib/gcc/riscv-none-embed/8.2.0/rv32imac/ilp32\libgcc.a(truncdfsf2.o)
 .debug_frame   0x00000000000024c0       0x20 c:/mounriver/mounriver_studio/toolchain/risc-v embedded gcc/bin/../lib/gcc/riscv-none-embed/8.2.0/rv32imac/ilp32\libgcc.a(_clzsi2.o)
 .debug_frame   0x00000000000024e0       0x78 c:/mounriver/mounriver_studio/toolchain/risc-v embedded gcc/bin/../lib/gcc/riscv-none-embed/8.2.0/../../../../riscv-none-embed/lib/rv32imac/ilp32\libg_nano.a(lib_a-locale.o)
 .debug_frame   0x0000000000002558       0x30 c:/mounriver/mounriver_studio/toolchain/risc-v embedded gcc/bin/../lib/gcc/riscv-none-embed/8.2.0/../../../../riscv-none-embed/lib/rv32imac/ilp32\libg_nano.a(lib_a-malloc.o)
 .debug_frame   0x0000000000002588       0x38 c:/mounriver/mounriver_studio/toolchain/risc-v embedded gcc/bin/../lib/gcc/riscv-none-embed/8.2.0/../../../../riscv-none-embed/lib/rv32imac/ilp32\libg_nano.a(lib_a-mbtowc_r.o)
 .debug_frame   0x00000000000025c0       0x20 c:/mounriver/mounriver_studio/toolchain/risc-v embedded gcc/bin/../lib/gcc/riscv-none-embed/8.2.0/../../../../riscv-none-embed/lib/rv32imac/ilp32\libg_nano.a(lib_a-memcmp.o)
 .debug_frame   0x00000000000025e0       0x20 c:/mounriver/mounriver_studio/toolchain/risc-v embedded gcc/bin/../lib/gcc/riscv-none-embed/8.2.0/../../../../riscv-none-embed/lib/rv32imac/ilp32\libg_nano.a(lib_a-memcpy.o)
 .debug_frame   0x0000000000002600       0x40 c:/mounriver/mounriver_studio/toolchain/risc-v embedded gcc/bin/../lib/gcc/riscv-none-embed/8.2.0/../../../../riscv-none-embed/lib/rv32imac/ilp32\libg_nano.a(lib_a-nano-freer.o)
 .debug_frame   0x0000000000002640       0x40 c:/mounriver/mounriver_studio/toolchain/risc-v embedded gcc/bin/../lib/gcc/riscv-none-embed/8.2.0/../../../../riscv-none-embed/lib/rv32imac/ilp32\libg_nano.a(lib_a-nano-mallocr.o)
 .debug_frame   0x0000000000002680       0xbc c:/mounriver/mounriver_studio/toolchain/risc-v embedded gcc/bin/../lib/gcc/riscv-none-embed/8.2.0/../../../../riscv-none-embed/lib/rv32imac/ilp32\libg_nano.a(lib_a-nano-vfprintf_float.o)
 .debug_frame   0x000000000000273c       0x8c c:/mounriver/mounriver_studio/toolchain/risc-v embedded gcc/bin/../lib/gcc/riscv-none-embed/8.2.0/../../../../riscv-none-embed/lib/rv32imac/ilp32\libg_nano.a(lib_a-nano-vfprintf_i.o)
 .debug_frame   0x00000000000027c8       0x54 c:/mounriver/mounriver_studio/toolchain/risc-v embedded gcc/bin/../lib/gcc/riscv-none-embed/8.2.0/../../../../riscv-none-embed/lib/rv32imac/ilp32\libg_nano.a(lib_a-printf.o)
 .debug_frame   0x000000000000281c       0x54 c:/mounriver/mounriver_studio/toolchain/risc-v embedded gcc/bin/../lib/gcc/riscv-none-embed/8.2.0/../../../../riscv-none-embed/lib/rv32imac/ilp32\libg_nano.a(lib_a-puts.o)
 .debug_frame   0x0000000000002870       0x30 c:/mounriver/mounriver_studio/toolchain/risc-v embedded gcc/bin/../lib/gcc/riscv-none-embed/8.2.0/../../../../riscv-none-embed/lib/rv32imac/ilp32\libg_nano.a(lib_a-sbrkr.o)
 .debug_frame   0x00000000000028a0       0x48 c:/mounriver/mounriver_studio/toolchain/risc-v embedded gcc/bin/../lib/gcc/riscv-none-embed/8.2.0/../../../../riscv-none-embed/lib/rv32imac/ilp32\libg_nano.a(lib_a-sprintf.o)
 .debug_frame   0x00000000000028e8       0x20 c:/mounriver/mounriver_studio/toolchain/risc-v embedded gcc/bin/../lib/gcc/riscv-none-embed/8.2.0/../../../../riscv-none-embed/lib/rv32imac/ilp32\libg_nano.a(lib_a-strlen.o)
 .debug_frame   0x0000000000002908       0x50 c:/mounriver/mounriver_studio/toolchain/risc-v embedded gcc/bin/../lib/gcc/riscv-none-embed/8.2.0/../../../../riscv-none-embed/lib/rv32imac/ilp32\libg_nano.a(lib_a-wbuf.o)
 .debug_frame   0x0000000000002958       0x30 c:/mounriver/mounriver_studio/toolchain/risc-v embedded gcc/bin/../lib/gcc/riscv-none-embed/8.2.0/../../../../riscv-none-embed/lib/rv32imac/ilp32\libg_nano.a(lib_a-wctomb_r.o)
 .debug_frame   0x0000000000002988       0x3c c:/mounriver/mounriver_studio/toolchain/risc-v embedded gcc/bin/../lib/gcc/riscv-none-embed/8.2.0/../../../../riscv-none-embed/lib/rv32imac/ilp32\libg_nano.a(lib_a-wsetup.o)
 .debug_frame   0x00000000000029c4       0x98 c:/mounriver/mounriver_studio/toolchain/risc-v embedded gcc/bin/../lib/gcc/riscv-none-embed/8.2.0/../../../../riscv-none-embed/lib/rv32imac/ilp32\libg_nano.a(lib_a-dtoa.o)
 .debug_frame   0x0000000000002a5c       0x7c c:/mounriver/mounriver_studio/toolchain/risc-v embedded gcc/bin/../lib/gcc/riscv-none-embed/8.2.0/../../../../riscv-none-embed/lib/rv32imac/ilp32\libg_nano.a(lib_a-fflush.o)
 .debug_frame   0x0000000000002ad8      0x148 c:/mounriver/mounriver_studio/toolchain/risc-v embedded gcc/bin/../lib/gcc/riscv-none-embed/8.2.0/../../../../riscv-none-embed/lib/rv32imac/ilp32\libg_nano.a(lib_a-findfp.o)
 .debug_frame   0x0000000000002c20       0x88 c:/mounriver/mounriver_studio/toolchain/risc-v embedded gcc/bin/../lib/gcc/riscv-none-embed/8.2.0/../../../../riscv-none-embed/lib/rv32imac/ilp32\libg_nano.a(lib_a-fwalk.o)
 .debug_frame   0x0000000000002ca8       0x40 c:/mounriver/mounriver_studio/toolchain/risc-v embedded gcc/bin/../lib/gcc/riscv-none-embed/8.2.0/../../../../riscv-none-embed/lib/rv32imac/ilp32\libg_nano.a(lib_a-localeconv.o)
 .debug_frame   0x0000000000002ce8       0x64 c:/mounriver/mounriver_studio/toolchain/risc-v embedded gcc/bin/../lib/gcc/riscv-none-embed/8.2.0/../../../../riscv-none-embed/lib/rv32imac/ilp32\libg_nano.a(lib_a-makebuf.o)
 .debug_frame   0x0000000000002d4c       0x20 c:/mounriver/mounriver_studio/toolchain/risc-v embedded gcc/bin/../lib/gcc/riscv-none-embed/8.2.0/../../../../riscv-none-embed/lib/rv32imac/ilp32\libg_nano.a(lib_a-memchr.o)
 .debug_frame   0x0000000000002d6c       0x30 c:/mounriver/mounriver_studio/toolchain/risc-v embedded gcc/bin/../lib/gcc/riscv-none-embed/8.2.0/../../../../riscv-none-embed/lib/rv32imac/ilp32\libg_nano.a(lib_a-mlock.o)
 .debug_frame   0x0000000000002d9c      0x2e0 c:/mounriver/mounriver_studio/toolchain/risc-v embedded gcc/bin/../lib/gcc/riscv-none-embed/8.2.0/../../../../riscv-none-embed/lib/rv32imac/ilp32\libg_nano.a(lib_a-mprec.o)
 .debug_frame   0x000000000000307c       0x30 c:/mounriver/mounriver_studio/toolchain/risc-v embedded gcc/bin/../lib/gcc/riscv-none-embed/8.2.0/../../../../riscv-none-embed/lib/rv32imac/ilp32\libg_nano.a(lib_a-nano-callocr.o)
 .debug_frame   0x00000000000030ac       0x40 c:/mounriver/mounriver_studio/toolchain/risc-v embedded gcc/bin/../lib/gcc/riscv-none-embed/8.2.0/../../../../riscv-none-embed/lib/rv32imac/ilp32\libg_nano.a(lib_a-nano-reallocr.o)
 .debug_frame   0x00000000000030ec       0xe0 c:/mounriver/mounriver_studio/toolchain/risc-v embedded gcc/bin/../lib/gcc/riscv-none-embed/8.2.0/../../../../riscv-none-embed/lib/rv32imac/ilp32\libg_nano.a(lib_a-nano-svfprintf.o)
 .debug_frame   0x00000000000031cc       0xd0 c:/mounriver/mounriver_studio/toolchain/risc-v embedded gcc/bin/../lib/gcc/riscv-none-embed/8.2.0/../../../../riscv-none-embed/lib/rv32imac/ilp32\libg_nano.a(lib_a-nano-vfprintf.o)
 .debug_frame   0x000000000000329c       0x70 c:/mounriver/mounriver_studio/toolchain/risc-v embedded gcc/bin/../lib/gcc/riscv-none-embed/8.2.0/../../../../riscv-none-embed/lib/rv32imac/ilp32\libg_nano.a(lib_a-reent.o)
 .debug_frame   0x000000000000330c       0xa4 c:/mounriver/mounriver_studio/toolchain/risc-v embedded gcc/bin/../lib/gcc/riscv-none-embed/8.2.0/../../../../riscv-none-embed/lib/rv32imac/ilp32\libg_nano.a(lib_a-stdio.o)
 .debug_frame   0x00000000000033b0       0x30 c:/mounriver/mounriver_studio/toolchain/risc-v embedded gcc/bin/../lib/gcc/riscv-none-embed/8.2.0/../../../../riscv-none-embed/lib/rv32imac/ilp32\libg_nano.a(lib_a-writer.o)
 .debug_frame   0x00000000000033e0       0x30 c:/mounriver/mounriver_studio/toolchain/risc-v embedded gcc/bin/../lib/gcc/riscv-none-embed/8.2.0/../../../../riscv-none-embed/lib/rv32imac/ilp32\libg_nano.a(lib_a-closer.o)
 .debug_frame   0x0000000000003410       0x30 c:/mounriver/mounriver_studio/toolchain/risc-v embedded gcc/bin/../lib/gcc/riscv-none-embed/8.2.0/../../../../riscv-none-embed/lib/rv32imac/ilp32\libg_nano.a(lib_a-fstatr.o)
 .debug_frame   0x0000000000003440       0x30 c:/mounriver/mounriver_studio/toolchain/risc-v embedded gcc/bin/../lib/gcc/riscv-none-embed/8.2.0/../../../../riscv-none-embed/lib/rv32imac/ilp32\libg_nano.a(lib_a-isattyr.o)
 .debug_frame   0x0000000000003470       0x30 c:/mounriver/mounriver_studio/toolchain/risc-v embedded gcc/bin/../lib/gcc/riscv-none-embed/8.2.0/../../../../riscv-none-embed/lib/rv32imac/ilp32\libg_nano.a(lib_a-lseekr.o)
 .debug_frame   0x00000000000034a0       0x20 c:/mounriver/mounriver_studio/toolchain/risc-v embedded gcc/bin/../lib/gcc/riscv-none-embed/8.2.0/../../../../riscv-none-embed/lib/rv32imac/ilp32\libg_nano.a(lib_a-memmove.o)
 .debug_frame   0x00000000000034c0       0x20 c:/mounriver/mounriver_studio/toolchain/risc-v embedded gcc/bin/../lib/gcc/riscv-none-embed/8.2.0/../../../../riscv-none-embed/lib/rv32imac/ilp32\libg_nano.a(lib_a-nano-msizer.o)
 .debug_frame   0x00000000000034e0       0x30 c:/mounriver/mounriver_studio/toolchain/risc-v embedded gcc/bin/../lib/gcc/riscv-none-embed/8.2.0/../../../../riscv-none-embed/lib/rv32imac/ilp32\libg_nano.a(lib_a-readr.o)
 .debug_frame   0x0000000000003510       0x20 c:/mounriver/mounriver_studio/toolchain/risc-v embedded gcc/bin/../lib/gcc/riscv-none-embed/8.2.0/rv32imac/ilp32\libgcc.a(eqdf2.o)
 .debug_frame   0x0000000000003530       0x20 c:/mounriver/mounriver_studio/toolchain/risc-v embedded gcc/bin/../lib/gcc/riscv-none-embed/8.2.0/rv32imac/ilp32\libgcc.a(gedf2.o)
 .debug_frame   0x0000000000003550       0x20 c:/mounriver/mounriver_studio/toolchain/risc-v embedded gcc/bin/../lib/gcc/riscv-none-embed/8.2.0/rv32imac/ilp32\libgcc.a(ledf2.o)
 .debug_frame   0x0000000000003570       0x20 c:/mounriver/mounriver_studio/toolchain/risc-v embedded gcc/bin/../lib/gcc/riscv-none-embed/8.2.0/rv32imac/ilp32\libgcc.a(unorddf2.o)
 .debug_frame   0x0000000000003590       0x20 c:/mounriver/mounriver_studio/toolchain/risc-v embedded gcc/bin/../lib/gcc/riscv-none-embed/8.2.0/rv32imac/ilp32\libgcc.a(fixdfsi.o)
 .debug_frame   0x00000000000035b0       0x38 c:/mounriver/mounriver_studio/toolchain/risc-v embedded gcc/bin/../lib/gcc/riscv-none-embed/8.2.0/rv32imac/ilp32\libgcc.a(floatunsidf.o)
 .debug_frame   0x00000000000035e8       0x2c c:/mounriver/mounriver_studio/toolchain/risc-v embedded gcc/bin/../lib/gcc/riscv-none-embed/8.2.0/rv32imac/ilp32\libgcc.a(trunctfdf2.o)
 .debug_frame   0x0000000000003614       0x20 c:/mounriver/mounriver_studio/toolchain/risc-v embedded gcc/bin/../lib/gcc/riscv-none-embed/8.2.0/../../../../riscv-none-embed/lib/rv32imac/ilp32\libnosys.a(close.o)
 .debug_frame   0x0000000000003634       0x20 c:/mounriver/mounriver_studio/toolchain/risc-v embedded gcc/bin/../lib/gcc/riscv-none-embed/8.2.0/../../../../riscv-none-embed/lib/rv32imac/ilp32\libnosys.a(fstat.o)
 .debug_frame   0x0000000000003654       0x20 c:/mounriver/mounriver_studio/toolchain/risc-v embedded gcc/bin/../lib/gcc/riscv-none-embed/8.2.0/../../../../riscv-none-embed/lib/rv32imac/ilp32\libnosys.a(isatty.o)
 .debug_frame   0x0000000000003674       0x20 c:/mounriver/mounriver_studio/toolchain/risc-v embedded gcc/bin/../lib/gcc/riscv-none-embed/8.2.0/../../../../riscv-none-embed/lib/rv32imac/ilp32\libnosys.a(lseek.o)
 .debug_frame   0x0000000000003694       0x20 c:/mounriver/mounriver_studio/toolchain/risc-v embedded gcc/bin/../lib/gcc/riscv-none-embed/8.2.0/../../../../riscv-none-embed/lib/rv32imac/ilp32\libnosys.a(read.o)
 .debug_frame   0x00000000000036b4       0x20 c:/mounriver/mounriver_studio/toolchain/risc-v embedded gcc/bin/../lib/gcc/riscv-none-embed/8.2.0/../../../../riscv-none-embed/lib/rv32imac/ilp32\libnosys.a(sbrk.o)

.stab           0x0000000000000000       0x84
 .stab          0x0000000000000000       0x24 c:/mounriver/mounriver_studio/toolchain/risc-v embedded gcc/bin/../lib/gcc/riscv-none-embed/8.2.0/../../../../riscv-none-embed/lib/rv32imac/ilp32\libnosys.a(close.o)
 .stab          0x0000000000000024       0x18 c:/mounriver/mounriver_studio/toolchain/risc-v embedded gcc/bin/../lib/gcc/riscv-none-embed/8.2.0/../../../../riscv-none-embed/lib/rv32imac/ilp32\libnosys.a(fstat.o)
                                         0x24 (size before relaxing)
 .stab          0x000000000000003c       0x18 c:/mounriver/mounriver_studio/toolchain/risc-v embedded gcc/bin/../lib/gcc/riscv-none-embed/8.2.0/../../../../riscv-none-embed/lib/rv32imac/ilp32\libnosys.a(isatty.o)
                                         0x24 (size before relaxing)
 .stab          0x0000000000000054       0x18 c:/mounriver/mounriver_studio/toolchain/risc-v embedded gcc/bin/../lib/gcc/riscv-none-embed/8.2.0/../../../../riscv-none-embed/lib/rv32imac/ilp32\libnosys.a(lseek.o)
                                         0x24 (size before relaxing)
 .stab          0x000000000000006c       0x18 c:/mounriver/mounriver_studio/toolchain/risc-v embedded gcc/bin/../lib/gcc/riscv-none-embed/8.2.0/../../../../riscv-none-embed/lib/rv32imac/ilp32\libnosys.a(read.o)
                                         0x24 (size before relaxing)

.stabstr        0x0000000000000000      0x117
 .stabstr       0x0000000000000000      0x117 c:/mounriver/mounriver_studio/toolchain/risc-v embedded gcc/bin/../lib/gcc/riscv-none-embed/8.2.0/../../../../riscv-none-embed/lib/rv32imac/ilp32\libnosys.a(close.o)
